
os.bin:     file format elf32-i386
os.bin
architecture: i386, flags 0x00000112:
EXEC_P, HAS_SYMS, D_PAGED
start address 0x00103240

Program Header:
    LOAD off    0x00001000 vaddr 0x00100000 paddr 0x00100000 align 2**12
         filesz 0x00004aba memsz 0x00004aba flags r-x
    LOAD off    0x00000000 vaddr 0x00105000 paddr 0x00105000 align 2**12
         filesz 0x00000000 memsz 0x00106c70 flags rw-

Sections:
Idx Name          Size      VMA       LMA       File off  Algn
  0 .text         000032f8  00100000  00100000  00001000  2**12
                  CONTENTS, ALLOC, LOAD, READONLY, CODE
  1 .rodata       00000aba  00104000  00104000  00005000  2**12
                  CONTENTS, ALLOC, LOAD, READONLY, DATA
  2 .bss          00106c70  00105000  00105000  00006000  2**12
                  ALLOC
  3 .debug_info   00005543  00000000  00000000  00005aba  2**0
                  CONTENTS, READONLY, DEBUGGING, OCTETS
  4 .debug_abbrev 00001772  00000000  00000000  0000affd  2**0
                  CONTENTS, READONLY, DEBUGGING, OCTETS
  5 .debug_loclists 000024e7  00000000  00000000  0000c76f  2**0
                  CONTENTS, READONLY, DEBUGGING, OCTETS
  6 .debug_aranges 000001e0  00000000  00000000  0000ec56  2**0
                  CONTENTS, READONLY, DEBUGGING, OCTETS
  7 .debug_rnglists 0000067f  00000000  00000000  0000ee36  2**0
                  CONTENTS, READONLY, DEBUGGING, OCTETS
  8 .debug_line   00003791  00000000  00000000  0000f4b5  2**0
                  CONTENTS, READONLY, DEBUGGING, OCTETS
  9 .debug_str    00000bf5  00000000  00000000  00012c46  2**0
                  CONTENTS, READONLY, DEBUGGING, OCTETS
 10 .debug_line_str 000001a4  00000000  00000000  0001383b  2**0
                  CONTENTS, READONLY, DEBUGGING, OCTETS
 11 .comment      00000012  00000000  00000000  000139df  2**0
                  CONTENTS, READONLY
 12 .debug_frame  00000b98  00000000  00000000  000139f8  2**3
                  CONTENTS, READONLY, DEBUGGING, OCTETS
SYMBOL TABLE:
00000000 l    df *ABS*	00000000 kernel/boot.asm
1badb002 l       *ABS*	00000000 MBOOT_HEADER_MAGIC
00000001 l       *ABS*	00000000 MBOOT_PAGE_ALIGN
00000002 l       *ABS*	00000000 MBOOT_MEM_INFO
00000003 l       *ABS*	00000000 MBOOT_HEADER_FLAGS
e4524ffb l       *ABS*	00000000 MBOOT_CHECKSUM
00207c70 l     O .bss	00000001 stack_bottom
0020bc70 l       .bss	00000000 stack_top
00103275 l       .text	00000000 _start.hang
001032ef l       .text	00000000 gdt_flush.flush
00000000 l    df *ABS*	00000000 gdt.c
00000000 l    df *ABS*	00000000 idt.c
00000000 l    df *ABS*	00000000 isr.c
00000000 l    df *ABS*	00000000 main.c
00000000 l    df *ABS*	00000000 shell.c
00100380 l     F .text	000000bb cmd_read_binary
00100440 l     F .text	000000dd ls_callback
00100520 l     F .text	000001d2 cmd_write_binary
00100700 l     F .text	0000005e print_prompt
00105840 l     O .bss	00001000 buffer.0
00106840 l     O .bss	00000004 cmd_index
00106860 l     O .bss	00000100 cmd_buffer
00000000 l    df *ABS*	00000000 ata.c
00106960 l     O .bss	00000004 ata_initialized
00000000 l    df *ABS*	00000000 fat32.c
001014c0 l     F .text	00000144 update_path
00106980 l     O .bss	00000004 directory_depth
00107aa0 l     O .bss	00000110 current_directory
001069a0 l     O .bss	00001100 parent_directories
00107bc0 l     O .bss	0000005a boot_sector
00107bb0 l     O .bss	00000004 sectors_per_cluster
00107bb8 l     O .bss	00000004 fat_begin_lba
00107bb4 l     O .bss	00000004 cluster_begin_lba
00107c1c l     O .bss	00000004 is_initialized
00000000 l    df *ABS*	00000000 keyboard.c
00107c24 l     O .bss	00000004 shift_pressed
00107c20 l     O .bss	00000004 caps_lock
00104a40 l     O .rodata	0000003a scancode_to_ascii_shift
00104a80 l     O .rodata	0000003a scancode_to_ascii
00000000 l    df *ABS*	00000000 loader.c
00000000 l    df *ABS*	00000000 memory.c
00107c40 l     O .bss	00000004 heap_ptr
00107c60 l     O .bss	00100000 heap
00000000 l    df *ABS*	00000000 stdterm.c
00000000 l    df *ABS*	00000000 vga.c
00207c62 l     O .bss	00000001 vga_color
00207c60 l     O .bss	00000002 cursor_pos
00000000 l    df *ABS*	00000000 stdint.c
00000000 l    df *ABS*	00000000 string.c
00103170 g     F .text	00000025 strcpy
00102bc0 g     F .text	00000005 print
00102ef0 g     F .text	0000001a vga_set_color
00101c70 g     F .text	0000014d fat32_create_file
00102df0 g     F .text	00000037 vga_writestr
00105000 g     O .bss	00000006 gp
00101610 g     F .text	000000ca fat32_init
00102f40 g     F .text	000000b0 uint32_t_to_str
001020f0 g     F .text	000000a3 fat32_allocate_cluster
00100760 g     F .text	0000020d cmd_cat
00105020 g     O .bss	00000006 idtp
001032a4 g       .text	00000000 isr80
00103080 g     F .text	0000002b memcpy
00102bb0 g     F .text	00000001 kfree
00101320 g     F .text	00000174 ata_write_sectors
00102ac0 g     F .text	0000007b jump_to_program
00101000 g     F .text	00000079 shell_handle_keypress
001028b0 g     F .text	0000001b keyboard_init
00105008 g     O .bss	00000018 gdt
00101700 g     F .text	00000053 fat32_get_next_cluster
00101c50 g     F .text	00000012 fat32_is_directory
00100b20 g     F .text	000004db shell_process_command
00101100 g     F .text	000000ba ata_init
00102c20 g     F .text	00000065 vga_init
00101f00 g     F .text	0000014d fat32_create_directory
00101b20 g     F .text	00000127 fat32_list_directory
00102050 g     F .text	0000009d fat32_write_fat_entry
001016e0 g     F .text	00000006 fat32_get_current_directory
00100260 g     F .text	000000f9 kernel_main
00101080 g     F .text	00000041 shell_init
001031a0 g     F .text	00000044 strcat
00102a10 g     F .text	00000006 keyboard_is_shift_pressed
00103240 g       .text	00000000 _start
00101760 g     F .text	000003b6 fat32_change_directory
001010d0 g     F .text	00000025 shell_run
00102b40 g     F .text	00000023 init_memory
00100010 g     F .text	0000006f set_gdt_entry
001011c0 g     F .text	0000015f ata_read_sectors
00100130 g     F .text	000000c4 init_idt
001030b0 g     F .text	00000056 memcmp
00100080 g     F .text	00000061 init_gdt
001031f0 g     F .text	0000004d strncat
00102eb0 g     F .text	0000003c vga_set_cursor_pos
00102bf0 g     F .text	00000010 printChar
00103030 g     F .text	00000043 memset
00103278 g       .text	00000000 isr0
00100200 g     F .text	0000005a isr_handler
00103110 g     F .text	00000059 strcmp
001028d0 g     F .text	00000134 keyboard_read
00105040 g     O .bss	00000800 idt
001021a0 g     F .text	00000210 fat32_write_file
00102a20 g     F .text	00000006 keyboard_is_caps_on
001016f0 g     F .text	00000006 fat32_get_current_path
00102c90 g     F .text	0000015f vga_putchar
001032d3 g       .text	00000000 gdt_flush
001000f0 g     F .text	0000003f set_idt_gate
00102b70 g     F .text	00000034 kmalloc
001032f0 g       .text	00000000 idt_flush
00103000 g     F .text	00000024 strlen
00102c00 g     F .text	00000005 clearScreen
00102bd0 g     F .text	00000019 println
00100970 g     F .text	000001a3 cmd_exec
001023b0 g     F .text	000004f5 fat32_read_file
00101dc0 g     F .text	0000013c fat32_delete_file
00102e30 g     F .text	00000072 vga_clear
00102a30 g     F .text	00000082 load_program



Disassembly of section .text:

00100000 <set_gdt_entry-0x10>:
  100000:	02 b0 ad 1b 03 00    	add    0x31bad(%eax),%dh
  100006:	00 00                	add    %al,(%eax)
  100008:	fb                   	sti
  100009:	4f                   	dec    %edi
  10000a:	52                   	push   %edx
  10000b:	e4 66                	in     $0x66,%al
  10000d:	90                   	nop
  10000e:	66 90                	xchg   %ax,%ax

00100010 <set_gdt_entry>:
struct gdt_ptr gp;

extern void gdt_flush(uint32_t);

// Helper function to set a GDT entry
void set_gdt_entry(int num, uint32_t base, uint32_t limit, uint8_t access, uint8_t granularity) {
  100010:	55                   	push   %ebp
  100011:	89 e5                	mov    %esp,%ebp
  100013:	57                   	push   %edi
  100014:	56                   	push   %esi
  100015:	53                   	push   %ebx
  100016:	83 ec 04             	sub    $0x4,%esp
  100019:	8b 45 18             	mov    0x18(%ebp),%eax
  10001c:	8b 55 0c             	mov    0xc(%ebp),%edx
  10001f:	8b 4d 08             	mov    0x8(%ebp),%ecx
  100022:	8b 75 14             	mov    0x14(%ebp),%esi
  100025:	89 45 f0             	mov    %eax,-0x10(%ebp)
    gdt[num].base_low = base & 0xFFFF;
    gdt[num].base_middle = (base >> 16) & 0xFF;
  100028:	89 d7                	mov    %edx,%edi
    gdt[num].base_high = (base >> 24) & 0xFF;

    gdt[num].limit_low = limit & 0xFFFF;
  10002a:	0f b7 45 10          	movzwl 0x10(%ebp),%eax
    gdt[num].base_middle = (base >> 16) & 0xFF;
  10002e:	c1 ef 10             	shr    $0x10,%edi
    gdt[num].base_low = base & 0xFFFF;
  100031:	66 89 14 cd 0a 50 10 	mov    %dx,0x10500a(,%ecx,8)
  100038:	00 
    gdt[num].base_middle = (base >> 16) & 0xFF;
  100039:	81 e2 00 00 00 ff    	and    $0xff000000,%edx
    gdt[num].limit_low = limit & 0xFFFF;
  10003f:	66 89 04 cd 08 50 10 	mov    %ax,0x105008(,%ecx,8)
  100046:	00 
    gdt[num].base_middle = (base >> 16) & 0xFF;
  100047:	89 fb                	mov    %edi,%ebx
  100049:	31 c0                	xor    %eax,%eax
  10004b:	88 d8                	mov    %bl,%al
  10004d:	89 f3                	mov    %esi,%ebx
    gdt[num].granularity = (limit >> 16) & 0x0F;
  10004f:	8b 75 10             	mov    0x10(%ebp),%esi
    gdt[num].base_middle = (base >> 16) & 0xFF;
  100052:	88 dc                	mov    %bl,%ah
  100054:	0f b6 5d f0          	movzbl -0x10(%ebp),%ebx
    gdt[num].granularity = (limit >> 16) & 0x0F;
  100058:	c1 ee 10             	shr    $0x10,%esi
    gdt[num].base_middle = (base >> 16) & 0xFF;
  10005b:	0f b7 c0             	movzwl %ax,%eax
    gdt[num].granularity = (limit >> 16) & 0x0F;
  10005e:	83 e6 0f             	and    $0xf,%esi
    gdt[num].base_middle = (base >> 16) & 0xFF;
  100061:	83 e3 f0             	and    $0xfffffff0,%ebx
  100064:	09 f3                	or     %esi,%ebx
  100066:	0f b6 db             	movzbl %bl,%ebx
  100069:	c1 e3 10             	shl    $0x10,%ebx
  10006c:	09 d8                	or     %ebx,%eax
  10006e:	09 c2                	or     %eax,%edx
  100070:	89 14 cd 0c 50 10 00 	mov    %edx,0x10500c(,%ecx,8)
    gdt[num].granularity |= granularity & 0xF0;
    gdt[num].access = access;
}
  100077:	83 c4 04             	add    $0x4,%esp
  10007a:	5b                   	pop    %ebx
  10007b:	5e                   	pop    %esi
  10007c:	5f                   	pop    %edi
  10007d:	5d                   	pop    %ebp
  10007e:	c3                   	ret
  10007f:	90                   	nop

00100080 <init_gdt>:

// Initialize the GDT
void init_gdt() {
  100080:	55                   	push   %ebp
    gp.limit = sizeof(gdt) - 1;
  100081:	b8 17 00 00 00       	mov    $0x17,%eax
  100086:	66 a3 00 50 10 00    	mov    %ax,0x105000
    gp.base = (uint32_t)&gdt;
  10008c:	c7 05 02 50 10 00 08 	movl   $0x105008,0x105002
  100093:	50 10 00 
    gdt[num].limit_low = limit & 0xFFFF;
  100096:	c7 05 08 50 10 00 00 	movl   $0x0,0x105008
  10009d:	00 00 00 
void init_gdt() {
  1000a0:	89 e5                	mov    %esp,%ebp

    // Data segment
    set_gdt_entry(2, 0, 0xFFFFF, 0x92, 0xCF);

    // Load the GDT
    gdt_flush((uint32_t)&gp);
  1000a2:	68 00 50 10 00       	push   $0x105000
    gdt[num].base_middle = (base >> 16) & 0xFF;
  1000a7:	c7 05 0c 50 10 00 00 	movl   $0x0,0x10500c
  1000ae:	00 00 00 
    gdt[num].limit_low = limit & 0xFFFF;
  1000b1:	c7 05 10 50 10 00 ff 	movl   $0xffff,0x105010
  1000b8:	ff 00 00 
    gdt[num].base_middle = (base >> 16) & 0xFF;
  1000bb:	c7 05 14 50 10 00 00 	movl   $0xcf9a00,0x105014
  1000c2:	9a cf 00 
    gdt[num].limit_low = limit & 0xFFFF;
  1000c5:	c7 05 18 50 10 00 ff 	movl   $0xffff,0x105018
  1000cc:	ff 00 00 
    gdt[num].base_middle = (base >> 16) & 0xFF;
  1000cf:	c7 05 1c 50 10 00 00 	movl   $0xcf9200,0x10501c
  1000d6:	92 cf 00 
    gdt_flush((uint32_t)&gp);
  1000d9:	e8 f5 31 00 00       	call   1032d3 <gdt_flush>
}
  1000de:	5a                   	pop    %edx
  1000df:	c9                   	leave
  1000e0:	c3                   	ret
  1000e1:	66 90                	xchg   %ax,%ax
  1000e3:	66 90                	xchg   %ax,%ax
  1000e5:	66 90                	xchg   %ax,%ax
  1000e7:	66 90                	xchg   %ax,%ax
  1000e9:	66 90                	xchg   %ax,%ax
  1000eb:	66 90                	xchg   %ax,%ax
  1000ed:	66 90                	xchg   %ax,%ax
  1000ef:	90                   	nop

001000f0 <set_idt_gate>:
struct idt_ptr idtp;

extern void idt_flush(uint32_t);

// Helper function to set an IDT gate
void set_idt_gate(int num, uint32_t base, uint16_t sel, uint8_t flags) {
  1000f0:	55                   	push   %ebp
  1000f1:	89 e5                	mov    %esp,%ebp
  1000f3:	53                   	push   %ebx
  1000f4:	8b 45 08             	mov    0x8(%ebp),%eax
  1000f7:	8b 55 0c             	mov    0xc(%ebp),%edx
  1000fa:	8b 5d 10             	mov    0x10(%ebp),%ebx
  1000fd:	8b 4d 14             	mov    0x14(%ebp),%ecx
    idt[num].offset_low = base & 0xFFFF;
  100100:	66 89 14 c5 40 50 10 	mov    %dx,0x105040(,%eax,8)
  100107:	00 
    idt[num].selector = sel;
    idt[num].zero = 0;
    idt[num].type_attr = flags;
    idt[num].offset_high = (base >> 16) & 0xFFFF;
  100108:	c1 ea 10             	shr    $0x10,%edx
    idt[num].selector = sel;
  10010b:	66 89 1c c5 42 50 10 	mov    %bx,0x105042(,%eax,8)
  100112:	00 
    idt[num].zero = 0;
  100113:	c6 04 c5 44 50 10 00 	movb   $0x0,0x105044(,%eax,8)
  10011a:	00 
    idt[num].type_attr = flags;
  10011b:	88 0c c5 45 50 10 00 	mov    %cl,0x105045(,%eax,8)
}
  100122:	8b 5d fc             	mov    -0x4(%ebp),%ebx
    idt[num].offset_high = (base >> 16) & 0xFFFF;
  100125:	66 89 14 c5 46 50 10 	mov    %dx,0x105046(,%eax,8)
  10012c:	00 
}
  10012d:	c9                   	leave
  10012e:	c3                   	ret
  10012f:	90                   	nop

00100130 <init_idt>:

// Initialize the IDT
void init_idt() {
  100130:	55                   	push   %ebp
    idtp.limit = sizeof(idt) - 1;
  100131:	b8 ff 07 00 00       	mov    $0x7ff,%eax
  100136:	b9 44 58 10 00       	mov    $0x105844,%ecx
  10013b:	0f b7 15 00 40 10 00 	movzwl 0x104000,%edx
    idtp.base = (uint32_t)&idt;
  100142:	c7 05 22 50 10 00 40 	movl   $0x105040,0x105022
  100149:	50 10 00 
    idtp.limit = sizeof(idt) - 1;
  10014c:	66 a3 20 50 10 00    	mov    %ax,0x105020

    // Clear the IDT
    for (int i = 0; i < 256; i++) {
  100152:	b8 44 50 10 00       	mov    $0x105044,%eax
void init_idt() {
  100157:	89 e5                	mov    %esp,%ebp
  100159:	8d b4 26 00 00 00 00 	lea    0x0(%esi,%eiz,1),%esi
    idt[num].offset_low = base & 0xFFFF;
  100160:	c7 40 fc 00 00 08 00 	movl   $0x80000,-0x4(%eax)
  100167:	83 c0 20             	add    $0x20,%eax
  10016a:	c7 40 e4 00 00 08 00 	movl   $0x80000,-0x1c(%eax)
  100171:	c7 40 ec 00 00 08 00 	movl   $0x80000,-0x14(%eax)
  100178:	c7 40 f4 00 00 08 00 	movl   $0x80000,-0xc(%eax)
    idt[num].zero = 0;
  10017f:	66 89 50 e0          	mov    %dx,-0x20(%eax)
  100183:	66 89 50 e8          	mov    %dx,-0x18(%eax)
  100187:	66 89 50 f0          	mov    %dx,-0x10(%eax)
  10018b:	66 89 50 f8          	mov    %dx,-0x8(%eax)
    idt[num].offset_high = (base >> 16) & 0xFFFF;
  10018f:	66 c7 40 e2 00 00    	movw   $0x0,-0x1e(%eax)
  100195:	66 c7 40 ea 00 00    	movw   $0x0,-0x16(%eax)
  10019b:	66 c7 40 f2 00 00    	movw   $0x0,-0xe(%eax)
  1001a1:	66 c7 40 fa 00 00    	movw   $0x0,-0x6(%eax)
    for (int i = 0; i < 256; i++) {
  1001a7:	39 c1                	cmp    %eax,%ecx
  1001a9:	75 b5                	jne    100160 <init_idt+0x30>
    }

    // Set specific ISRs
    extern void isr0();
    extern void isr80();
    set_idt_gate(0, (uint32_t)isr0, 0x08, 0x8E);   // Divide-by-zero
  1001ab:	b8 78 32 10 00       	mov    $0x103278,%eax
    set_idt_gate(0x80, (uint32_t)isr80, 0x08, 0x8E); // Syscall

    // Load the IDT
    idt_flush((uint32_t)&idtp);
  1001b0:	68 20 50 10 00       	push   $0x105020
    idt[num].offset_low = base & 0xFFFF;
  1001b5:	66 a3 40 50 10 00    	mov    %ax,0x105040
    idt[num].offset_high = (base >> 16) & 0xFFFF;
  1001bb:	c1 e8 10             	shr    $0x10,%eax
  1001be:	66 a3 46 50 10 00    	mov    %ax,0x105046
    set_idt_gate(0x80, (uint32_t)isr80, 0x08, 0x8E); // Syscall
  1001c4:	b8 a4 32 10 00       	mov    $0x1032a4,%eax
    idt[num].offset_low = base & 0xFFFF;
  1001c9:	66 a3 40 54 10 00    	mov    %ax,0x105440
    idt[num].offset_high = (base >> 16) & 0xFFFF;
  1001cf:	c1 e8 10             	shr    $0x10,%eax
  1001d2:	66 a3 46 54 10 00    	mov    %ax,0x105446
    idt[num].selector = sel;
  1001d8:	c7 05 42 50 10 00 08 	movl   $0x8e000008,0x105042
  1001df:	00 00 8e 
  1001e2:	c7 05 42 54 10 00 08 	movl   $0x8e000008,0x105442
  1001e9:	00 00 8e 
    idt_flush((uint32_t)&idtp);
  1001ec:	e8 ff 30 00 00       	call   1032f0 <idt_flush>
}
  1001f1:	58                   	pop    %eax
  1001f2:	c9                   	leave
  1001f3:	c3                   	ret
  1001f4:	66 90                	xchg   %ax,%ax
  1001f6:	66 90                	xchg   %ax,%ax
  1001f8:	66 90                	xchg   %ax,%ax
  1001fa:	66 90                	xchg   %ax,%ax
  1001fc:	66 90                	xchg   %ax,%ax
  1001fe:	66 90                	xchg   %ax,%ax

00100200 <isr_handler>:
#include "idt.h"
#include "stdterm.h"

void isr_handler(struct registers_t *regs) {
  100200:	55                   	push   %ebp
  100201:	89 e5                	mov    %esp,%ebp
  100203:	8b 55 08             	mov    0x8(%ebp),%edx
    uint32_t syscall = regs->int_no;
  100206:	8b 42 30             	mov    0x30(%edx),%eax
    uint32_t arg1 = regs->ebx;

    if (syscall == 0) {
  100209:	85 c0                	test   %eax,%eax
  10020b:	74 24                	je     100231 <isr_handler+0x31>
        print("Divide-by-zero exception!\n");
        while (1);
    } else if (syscall == 1) {
  10020d:	83 f8 01             	cmp    $0x1,%eax
  100210:	74 3b                	je     10024d <isr_handler+0x4d>
        // printChar syscall
        printChar(arg1);
    } else if (syscall == 0x80) {
  100212:	3d 80 00 00 00       	cmp    $0x80,%eax
  100217:	74 27                	je     100240 <isr_handler+0x40>
        print("Syscall interrupt!\n");
    } else {
        print("Unhandled interrupt: ");
  100219:	68 31 40 10 00       	push   $0x104031
  10021e:	e8 9d 29 00 00       	call   102bc0 <print>
        // print_hex(regs->int_no);
        print("\n");
  100223:	58                   	pop    %eax
  100224:	c7 45 08 0a 44 10 00 	movl   $0x10440a,0x8(%ebp)
    }
  10022b:	c9                   	leave
        print("\n");
  10022c:	e9 8f 29 00 00       	jmp    102bc0 <print>
        print("Divide-by-zero exception!\n");
  100231:	68 02 40 10 00       	push   $0x104002
  100236:	e8 85 29 00 00       	call   102bc0 <print>
  10023b:	5a                   	pop    %edx
        while (1);
  10023c:	eb fe                	jmp    10023c <isr_handler+0x3c>
  10023e:	66 90                	xchg   %ax,%ax
        print("Syscall interrupt!\n");
  100240:	c7 45 08 1d 40 10 00 	movl   $0x10401d,0x8(%ebp)
  100247:	c9                   	leave
        print("Syscall interrupt!\n");
  100248:	e9 73 29 00 00       	jmp    102bc0 <print>
        printChar(arg1);
  10024d:	0f be 42 20          	movsbl 0x20(%edx),%eax
  100251:	89 45 08             	mov    %eax,0x8(%ebp)
  100254:	c9                   	leave
        printChar(arg1);
  100255:	e9 96 29 00 00       	jmp    102bf0 <printChar>
  10025a:	66 90                	xchg   %ax,%ax
  10025c:	66 90                	xchg   %ax,%ax
  10025e:	66 90                	xchg   %ax,%ax

00100260 <kernel_main>:
#include <fat32.h>
#include "shell.h"
#include "idt.h"
#include "gdt.h"

void kernel_main(void) {
  100260:	55                   	push   %ebp
  100261:	89 e5                	mov    %esp,%ebp
  100263:	53                   	push   %ebx
    vga_writestr("IDT init starting...\n");
    init_idt();
    vga_writestr("IDT init done.\n");

    
    vga_writestr("Initializing hardware...\n");
  100264:	bb 03 00 00 00       	mov    $0x3,%ebx
    vga_init();
  100269:	e8 b2 29 00 00       	call   102c20 <vga_init>
    keyboard_init();
  10026e:	e8 3d 26 00 00       	call   1028b0 <keyboard_init>
    vga_writestr("GDT init starting...\n");
  100273:	68 47 40 10 00       	push   $0x104047
  100278:	e8 73 2b 00 00       	call   102df0 <vga_writestr>
    init_gdt();
  10027d:	e8 fe fd ff ff       	call   100080 <init_gdt>
    vga_writestr("GDT init done.\n");
  100282:	68 5d 40 10 00       	push   $0x10405d
  100287:	e8 64 2b 00 00       	call   102df0 <vga_writestr>
    vga_writestr("IDT init starting...\n");
  10028c:	68 6d 40 10 00       	push   $0x10406d
  100291:	e8 5a 2b 00 00       	call   102df0 <vga_writestr>
    init_idt();
  100296:	e8 95 fe ff ff       	call   100130 <init_idt>
    vga_writestr("IDT init done.\n");
  10029b:	68 83 40 10 00       	push   $0x104083
  1002a0:	e8 4b 2b 00 00       	call   102df0 <vga_writestr>
    vga_writestr("Initializing hardware...\n");
  1002a5:	68 93 40 10 00       	push   $0x104093
  1002aa:	e8 41 2b 00 00       	call   102df0 <vga_writestr>
  1002af:	83 c4 14             	add    $0x14,%esp
    // Initialize ATA with retry
    int retries = 3;
    bool ata_ok = false;
    
    while (retries-- && !ata_ok) {
        vga_writestr("Initializing ATA drive... ");
  1002b2:	68 ad 40 10 00       	push   $0x1040ad
  1002b7:	e8 34 2b 00 00       	call   102df0 <vga_writestr>
        ata_ok = ata_init();
  1002bc:	e8 3f 0e 00 00       	call   101100 <ata_init>
        if (!ata_ok) {
  1002c1:	5a                   	pop    %edx
  1002c2:	85 c0                	test   %eax,%eax
  1002c4:	74 4a                	je     100310 <kernel_main+0xb0>
        vga_writestr("\nFATAL: Could not initialize ATA drive!\n");
        vga_writestr("System halted.\n");
        while(1);
    }
    
    vga_writestr("OK\n");
  1002c6:	68 c8 40 10 00       	push   $0x1040c8
  1002cb:	e8 20 2b 00 00       	call   102df0 <vga_writestr>
    
    // Initialize filesystem
    vga_writestr("Initializing filesystem... ");
  1002d0:	68 cc 40 10 00       	push   $0x1040cc
  1002d5:	e8 16 2b 00 00       	call   102df0 <vga_writestr>
    if (!fat32_init()) {
  1002da:	e8 31 13 00 00       	call   101610 <fat32_init>
  1002df:	5a                   	pop    %edx
  1002e0:	59                   	pop    %ecx
  1002e1:	85 c0                	test   %eax,%eax
  1002e3:	75 5b                	jne    100340 <kernel_main+0xe0>
        vga_writestr("Failed!\n");
  1002e5:	68 0d 41 10 00       	push   $0x10410d
  1002ea:	e8 01 2b 00 00       	call   102df0 <vga_writestr>
        vga_writestr("WARNING: Filesystem commands will be unavailable.\n");
  1002ef:	68 80 45 10 00       	push   $0x104580
  1002f4:	e8 f7 2a 00 00       	call   102df0 <vga_writestr>
  1002f9:	5a                   	pop    %edx
  1002fa:	59                   	pop    %ecx
    } else {
        vga_writestr("OK\n");
    }
    
    // Start shell
    shell_init();
  1002fb:	e8 80 0d 00 00       	call   101080 <shell_init>
    shell_run();
  100300:	8b 5d fc             	mov    -0x4(%ebp),%ebx
  100303:	c9                   	leave
    shell_run();
  100304:	e9 c7 0d 00 00       	jmp    1010d0 <shell_run>
  100309:	8d b4 26 00 00 00 00 	lea    0x0(%esi,%eiz,1),%esi
            vga_writestr("Failed, retrying...\n");
  100310:	68 e8 40 10 00       	push   $0x1040e8
  100315:	e8 d6 2a 00 00       	call   102df0 <vga_writestr>
    while (retries-- && !ata_ok) {
  10031a:	58                   	pop    %eax
  10031b:	83 eb 01             	sub    $0x1,%ebx
  10031e:	75 92                	jne    1002b2 <kernel_main+0x52>
        vga_writestr("\nFATAL: Could not initialize ATA drive!\n");
  100320:	68 54 45 10 00       	push   $0x104554
  100325:	e8 c6 2a 00 00       	call   102df0 <vga_writestr>
        vga_writestr("System halted.\n");
  10032a:	68 fd 40 10 00       	push   $0x1040fd
  10032f:	e8 bc 2a 00 00       	call   102df0 <vga_writestr>
  100334:	5b                   	pop    %ebx
  100335:	58                   	pop    %eax
        while(1);
  100336:	eb fe                	jmp    100336 <kernel_main+0xd6>
  100338:	2e 8d b4 26 00 00 00 	lea    %cs:0x0(%esi,%eiz,1),%esi
  10033f:	00 
        vga_writestr("OK\n");
  100340:	68 c8 40 10 00       	push   $0x1040c8
  100345:	e8 a6 2a 00 00       	call   102df0 <vga_writestr>
  10034a:	58                   	pop    %eax
    shell_init();
  10034b:	e8 30 0d 00 00       	call   101080 <shell_init>
  100350:	8b 5d fc             	mov    -0x4(%ebp),%ebx
  100353:	c9                   	leave
    shell_run();
  100354:	e9 77 0d 00 00       	jmp    1010d0 <shell_run>
  100359:	66 90                	xchg   %ax,%ax
  10035b:	66 90                	xchg   %ax,%ax
  10035d:	66 90                	xchg   %ax,%ax
  10035f:	66 90                	xchg   %ax,%ax
  100361:	66 90                	xchg   %ax,%ax
  100363:	66 90                	xchg   %ax,%ax
  100365:	66 90                	xchg   %ax,%ax
  100367:	66 90                	xchg   %ax,%ax
  100369:	66 90                	xchg   %ax,%ax
  10036b:	66 90                	xchg   %ax,%ax
  10036d:	66 90                	xchg   %ax,%ax
  10036f:	66 90                	xchg   %ax,%ax
  100371:	66 90                	xchg   %ax,%ax
  100373:	66 90                	xchg   %ax,%ax
  100375:	66 90                	xchg   %ax,%ax
  100377:	66 90                	xchg   %ax,%ax
  100379:	66 90                	xchg   %ax,%ax
  10037b:	66 90                	xchg   %ax,%ax
  10037d:	66 90                	xchg   %ax,%ax
  10037f:	90                   	nop

00100380 <cmd_read_binary>:
    } else {
        vga_writestr("\nError writing binary file\n");
    }
}

static void cmd_read_binary(const char* filename) {
  100380:	55                   	push   %ebp
  100381:	89 e5                	mov    %esp,%ebp
  100383:	57                   	push   %edi
  100384:	56                   	push   %esi
    uint8_t buffer[4096];
    uint32_t size = sizeof(buffer);

    if (fat32_read_file(filename, buffer, &size)) {
  100385:	8d 95 f0 ef ff ff    	lea    -0x1010(%ebp),%edx
static void cmd_read_binary(const char* filename) {
  10038b:	53                   	push   %ebx
    if (fat32_read_file(filename, buffer, &size)) {
  10038c:	8d 9d f4 ef ff ff    	lea    -0x100c(%ebp),%ebx
static void cmd_read_binary(const char* filename) {
  100392:	81 ec 08 10 00 00    	sub    $0x1008,%esp
    uint32_t size = sizeof(buffer);
  100398:	c7 85 f0 ef ff ff 00 	movl   $0x1000,-0x1010(%ebp)
  10039f:	10 00 00 
    if (fat32_read_file(filename, buffer, &size)) {
  1003a2:	52                   	push   %edx
  1003a3:	53                   	push   %ebx
  1003a4:	50                   	push   %eax
  1003a5:	e8 06 20 00 00       	call   1023b0 <fat32_read_file>
  1003aa:	83 c4 0c             	add    $0xc,%esp
  1003ad:	85 c0                	test   %eax,%eax
  1003af:	74 77                	je     100428 <cmd_read_binary+0xa8>
        vga_writestr("\nContent (hex): ");
  1003b1:	68 16 41 10 00       	push   $0x104116
  1003b6:	e8 35 2a 00 00       	call   102df0 <vga_writestr>
        for (uint32_t i = 0; i < size; i++) {
  1003bb:	8b bd f0 ef ff ff    	mov    -0x1010(%ebp),%edi
  1003c1:	5e                   	pop    %esi
  1003c2:	85 ff                	test   %edi,%edi
  1003c4:	74 4c                	je     100412 <cmd_read_binary+0x92>
  1003c6:	31 ff                	xor    %edi,%edi
  1003c8:	8d b5 ec ef ff ff    	lea    -0x1014(%ebp),%esi
  1003ce:	66 90                	xchg   %ax,%ax
            char hex[3];
            hex[0] = "0123456789ABCDEF"[buffer[i] >> 4];
  1003d0:	0f b6 04 3b          	movzbl (%ebx,%edi,1),%eax
            hex[1] = "0123456789ABCDEF"[buffer[i] & 0xF];
            hex[2] = 0;
  1003d4:	c6 85 ee ef ff ff 00 	movb   $0x0,-0x1012(%ebp)
        for (uint32_t i = 0; i < size; i++) {
  1003db:	83 c7 01             	add    $0x1,%edi
            hex[0] = "0123456789ABCDEF"[buffer[i] >> 4];
  1003de:	89 c2                	mov    %eax,%edx
            hex[1] = "0123456789ABCDEF"[buffer[i] & 0xF];
  1003e0:	83 e0 0f             	and    $0xf,%eax
            hex[0] = "0123456789ABCDEF"[buffer[i] >> 4];
  1003e3:	c0 ea 04             	shr    $0x4,%dl
            hex[1] = "0123456789ABCDEF"[buffer[i] & 0xF];
  1003e6:	0f b6 80 43 41 10 00 	movzbl 0x104143(%eax),%eax
            hex[0] = "0123456789ABCDEF"[buffer[i] >> 4];
  1003ed:	0f b6 d2             	movzbl %dl,%edx
  1003f0:	0f b6 92 43 41 10 00 	movzbl 0x104143(%edx),%edx
            hex[1] = "0123456789ABCDEF"[buffer[i] & 0xF];
  1003f7:	88 85 ed ef ff ff    	mov    %al,-0x1013(%ebp)
            hex[0] = "0123456789ABCDEF"[buffer[i] >> 4];
  1003fd:	88 95 ec ef ff ff    	mov    %dl,-0x1014(%ebp)
            vga_writestr(hex);
  100403:	56                   	push   %esi
  100404:	e8 e7 29 00 00       	call   102df0 <vga_writestr>
        for (uint32_t i = 0; i < size; i++) {
  100409:	59                   	pop    %ecx
  10040a:	3b bd f0 ef ff ff    	cmp    -0x1010(%ebp),%edi
  100410:	72 be                	jb     1003d0 <cmd_read_binary+0x50>
        }
        vga_writestr("\n");
  100412:	68 0a 44 10 00       	push   $0x10440a
  100417:	e8 d4 29 00 00       	call   102df0 <vga_writestr>
  10041c:	5a                   	pop    %edx
    } else {
        vga_writestr("\nError reading binary file\n");
    }
}
  10041d:	8d 65 f4             	lea    -0xc(%ebp),%esp
  100420:	5b                   	pop    %ebx
  100421:	5e                   	pop    %esi
  100422:	5f                   	pop    %edi
  100423:	5d                   	pop    %ebp
  100424:	c3                   	ret
  100425:	8d 76 00             	lea    0x0(%esi),%esi
        vga_writestr("\nError reading binary file\n");
  100428:	68 27 41 10 00       	push   $0x104127
  10042d:	e8 be 29 00 00       	call   102df0 <vga_writestr>
  100432:	58                   	pop    %eax
}
  100433:	8d 65 f4             	lea    -0xc(%ebp),%esp
  100436:	5b                   	pop    %ebx
  100437:	5e                   	pop    %esi
  100438:	5f                   	pop    %edi
  100439:	5d                   	pop    %ebp
  10043a:	c3                   	ret
  10043b:	2e 8d 74 26 00       	lea    %cs:0x0(%esi,%eiz,1),%esi

00100440 <ls_callback>:
static void ls_callback(const char* name, uint32_t size, uint8_t attr) {
  100440:	55                   	push   %ebp
  100441:	89 e5                	mov    %esp,%ebp
  100443:	57                   	push   %edi
  100444:	56                   	push   %esi
    int len = 0;
  100445:	31 f6                	xor    %esi,%esi
static void ls_callback(const char* name, uint32_t size, uint8_t attr) {
  100447:	53                   	push   %ebx
  100448:	8d 5d e3             	lea    -0x1d(%ebp),%ebx
  10044b:	83 ec 1c             	sub    $0x1c,%esp
  10044e:	8b 7d 08             	mov    0x8(%ebp),%edi
  100451:	8b 45 10             	mov    0x10(%ebp),%eax
  100454:	8b 4d 0c             	mov    0xc(%ebp),%ecx
  100457:	89 45 dc             	mov    %eax,-0x24(%ebp)
        size_str[len++] = '0' + (temp % 10);
  10045a:	89 7d d8             	mov    %edi,-0x28(%ebp)
  10045d:	eb 21                	jmp    100480 <ls_callback+0x40>
  10045f:	2e 8d b4 26 00 00 00 	lea    %cs:0x0(%esi,%eiz,1),%esi
  100466:	00 
  100467:	2e 8d b4 26 00 00 00 	lea    %cs:0x0(%esi,%eiz,1),%esi
  10046e:	00 
  10046f:	2e 8d b4 26 00 00 00 	lea    %cs:0x0(%esi,%eiz,1),%esi
  100476:	00 
  100477:	2e 8d b4 26 00 00 00 	lea    %cs:0x0(%esi,%eiz,1),%esi
  10047e:	00 
  10047f:	90                   	nop
  100480:	b8 cd cc cc cc       	mov    $0xcccccccd,%eax
  100485:	89 75 e0             	mov    %esi,-0x20(%ebp)
  100488:	83 c6 01             	add    $0x1,%esi
  10048b:	f7 e1                	mul    %ecx
  10048d:	89 c8                	mov    %ecx,%eax
  10048f:	c1 ea 03             	shr    $0x3,%edx
  100492:	8d 3c 92             	lea    (%edx,%edx,4),%edi
  100495:	01 ff                	add    %edi,%edi
  100497:	29 f8                	sub    %edi,%eax
  100499:	83 c0 30             	add    $0x30,%eax
  10049c:	88 04 33             	mov    %al,(%ebx,%esi,1)
        temp /= 10;
  10049f:	89 c8                	mov    %ecx,%eax
  1004a1:	89 d1                	mov    %edx,%ecx
    } while (temp > 0);
  1004a3:	83 f8 09             	cmp    $0x9,%eax
  1004a6:	77 d8                	ja     100480 <ls_callback+0x40>
    size_str[len] = '\0';
  1004a8:	8b 7d d8             	mov    -0x28(%ebp),%edi
  1004ab:	c6 44 35 e4 00       	movb   $0x0,-0x1c(%ebp,%esi,1)
    vga_writestr(name);
  1004b0:	57                   	push   %edi
  1004b1:	e8 3a 29 00 00       	call   102df0 <vga_writestr>
    vga_writestr("    ");
  1004b6:	68 54 41 10 00       	push   $0x104154
  1004bb:	e8 30 29 00 00       	call   102df0 <vga_writestr>
    while (len > 0) {
  1004c0:	8b 5d e0             	mov    -0x20(%ebp),%ebx
  1004c3:	8d 45 e4             	lea    -0x1c(%ebp),%eax
  1004c6:	5e                   	pop    %esi
  1004c7:	5f                   	pop    %edi
  1004c8:	01 c3                	add    %eax,%ebx
  1004ca:	8d b6 00 00 00 00    	lea    0x0(%esi),%esi
        vga_putchar(size_str[--len]);
  1004d0:	0f be 03             	movsbl (%ebx),%eax
    while (len > 0) {
  1004d3:	8d 75 e4             	lea    -0x1c(%ebp),%esi
        vga_putchar(size_str[--len]);
  1004d6:	50                   	push   %eax
  1004d7:	e8 b4 27 00 00       	call   102c90 <vga_putchar>
    while (len > 0) {
  1004dc:	89 d8                	mov    %ebx,%eax
  1004de:	59                   	pop    %ecx
  1004df:	83 eb 01             	sub    $0x1,%ebx
  1004e2:	39 f0                	cmp    %esi,%eax
  1004e4:	75 ea                	jne    1004d0 <ls_callback+0x90>
    vga_writestr(" bytes");
  1004e6:	68 59 41 10 00       	push   $0x104159
  1004eb:	e8 00 29 00 00       	call   102df0 <vga_writestr>
    if (attr & ATTR_DIRECTORY) {
  1004f0:	5a                   	pop    %edx
  1004f1:	f6 45 dc 10          	testb  $0x10,-0x24(%ebp)
  1004f5:	75 19                	jne    100510 <ls_callback+0xd0>
    vga_putchar('\n');
  1004f7:	c7 45 08 0a 00 00 00 	movl   $0xa,0x8(%ebp)
}
  1004fe:	8d 65 f4             	lea    -0xc(%ebp),%esp
  100501:	5b                   	pop    %ebx
  100502:	5e                   	pop    %esi
  100503:	5f                   	pop    %edi
  100504:	5d                   	pop    %ebp
    vga_putchar('\n');
  100505:	e9 86 27 00 00       	jmp    102c90 <vga_putchar>
  10050a:	8d b6 00 00 00 00    	lea    0x0(%esi),%esi
        vga_writestr(" <DIR>");
  100510:	68 60 41 10 00       	push   $0x104160
  100515:	e8 d6 28 00 00       	call   102df0 <vga_writestr>
  10051a:	58                   	pop    %eax
  10051b:	eb da                	jmp    1004f7 <ls_callback+0xb7>
  10051d:	8d 76 00             	lea    0x0(%esi),%esi

00100520 <cmd_write_binary>:
static void cmd_write_binary(const char* args) {
  100520:	55                   	push   %ebp
  100521:	89 c2                	mov    %eax,%edx
    char hexdata[256] = {0};
  100523:	b9 40 00 00 00       	mov    $0x40,%ecx
  100528:	31 c0                	xor    %eax,%eax
static void cmd_write_binary(const char* args) {
  10052a:	89 e5                	mov    %esp,%ebp
  10052c:	57                   	push   %edi
  10052d:	56                   	push   %esi
    char hexdata[256] = {0};
  10052e:	8d bd f4 fe ff ff    	lea    -0x10c(%ebp),%edi
static void cmd_write_binary(const char* args) {
  100534:	53                   	push   %ebx
  100535:	81 ec 98 01 00 00    	sub    $0x198,%esp
    char filename[12] = {0};
  10053b:	c7 85 68 fe ff ff 00 	movl   $0x0,-0x198(%ebp)
  100542:	00 00 00 
    char hexdata[256] = {0};
  100545:	f3 ab                	rep stos %eax,%es:(%edi)
    uint8_t binary[128] = {0};
  100547:	b9 20 00 00 00       	mov    $0x20,%ecx
  10054c:	8d bd 74 fe ff ff    	lea    -0x18c(%ebp),%edi
    char filename[12] = {0};
  100552:	c7 85 6c fe ff ff 00 	movl   $0x0,-0x194(%ebp)
  100559:	00 00 00 
    uint8_t binary[128] = {0};
  10055c:	f3 ab                	rep stos %eax,%es:(%edi)
    while (args[i] && args[i] != ' ') {
  10055e:	0f b6 02             	movzbl (%edx),%eax
    char filename[12] = {0};
  100561:	c7 85 70 fe ff ff 00 	movl   $0x0,-0x190(%ebp)
  100568:	00 00 00 
    while (args[i] && args[i] != ' ') {
  10056b:	a8 df                	test   $0xdf,%al
  10056d:	0f 84 68 01 00 00    	je     1006db <cmd_write_binary+0x1bb>
  100573:	8d bd 68 fe ff ff    	lea    -0x198(%ebp),%edi
  100579:	8d b4 26 00 00 00 00 	lea    0x0(%esi,%eiz,1),%esi
        if (i < 11) filename[i] = args[i];
  100580:	83 f9 0a             	cmp    $0xa,%ecx
  100583:	7f 03                	jg     100588 <cmd_write_binary+0x68>
  100585:	88 04 0f             	mov    %al,(%edi,%ecx,1)
        i++;
  100588:	83 c1 01             	add    $0x1,%ecx
    while (args[i] && args[i] != ' ') {
  10058b:	0f b6 04 0a          	movzbl (%edx,%ecx,1),%eax
  10058f:	a8 df                	test   $0xdf,%al
  100591:	75 ed                	jne    100580 <cmd_write_binary+0x60>
    while (args[i] == ' ') i++;  // Skip spaces
  100593:	3c 20                	cmp    $0x20,%al
  100595:	0f 85 50 01 00 00    	jne    1006eb <cmd_write_binary+0x1cb>
  10059b:	2e 8d 74 26 00       	lea    %cs:0x0(%esi,%eiz,1),%esi
  1005a0:	83 c1 01             	add    $0x1,%ecx
  1005a3:	0f b6 1c 0a          	movzbl (%edx,%ecx,1),%ebx
  1005a7:	80 fb 20             	cmp    $0x20,%bl
  1005aa:	74 f4                	je     1005a0 <cmd_write_binary+0x80>
    while (args[i] && j < 255) {
  1005ac:	84 db                	test   %bl,%bl
  1005ae:	0f 84 37 01 00 00    	je     1006eb <cmd_write_binary+0x1cb>
    int j = 0;
  1005b4:	31 c0                	xor    %eax,%eax
  1005b6:	8d b5 f3 fe ff ff    	lea    -0x10d(%ebp),%esi
  1005bc:	01 ca                	add    %ecx,%edx
  1005be:	eb 07                	jmp    1005c7 <cmd_write_binary+0xa7>
    while (args[i] && j < 255) {
  1005c0:	3d ff 00 00 00       	cmp    $0xff,%eax
  1005c5:	74 0e                	je     1005d5 <cmd_write_binary+0xb5>
        hexdata[j++] = args[i++];
  1005c7:	83 c0 01             	add    $0x1,%eax
  1005ca:	88 1c 06             	mov    %bl,(%esi,%eax,1)
    while (args[i] && j < 255) {
  1005cd:	0f b6 1c 02          	movzbl (%edx,%eax,1),%ebx
  1005d1:	84 db                	test   %bl,%bl
  1005d3:	75 eb                	jne    1005c0 <cmd_write_binary+0xa0>
    hexdata[j] = 0;
  1005d5:	c6 84 05 f4 fe ff ff 	movb   $0x0,-0x10c(%ebp,%eax,1)
  1005dc:	00 
    size_t hex_len = strlen(hexdata);
  1005dd:	8d 85 f4 fe ff ff    	lea    -0x10c(%ebp),%eax
  1005e3:	50                   	push   %eax
  1005e4:	e8 17 2a 00 00       	call   103000 <strlen>
  1005e9:	89 85 60 fe ff ff    	mov    %eax,-0x1a0(%ebp)
    for (size_t idx = 0; idx < hex_len; idx += 2) {
  1005ef:	59                   	pop    %ecx
  1005f0:	85 c0                	test   %eax,%eax
  1005f2:	0f 84 9c 00 00 00    	je     100694 <cmd_write_binary+0x174>
  1005f8:	89 bd 5c fe ff ff    	mov    %edi,-0x1a4(%ebp)
  1005fe:	8d 95 74 fe ff ff    	lea    -0x18c(%ebp),%edx
  100604:	31 f6                	xor    %esi,%esi
  100606:	eb 43                	jmp    10064b <cmd_write_binary+0x12b>
  100608:	2e 8d b4 26 00 00 00 	lea    %cs:0x0(%esi,%eiz,1),%esi
  10060f:	00 
            else if (c >= 'A' && c <= 'F') value |= c - 'A' + 10;
  100610:	8d 5a bf             	lea    -0x41(%edx),%ebx
  100613:	80 fb 05             	cmp    $0x5,%bl
  100616:	76 58                	jbe    100670 <cmd_write_binary+0x150>
            else if (c >= 'a' && c <= 'f') value |= c - 'a' + 10;
  100618:	8d 5a 9f             	lea    -0x61(%edx),%ebx
  10061b:	83 ea 57             	sub    $0x57,%edx
  10061e:	09 c2                	or     %eax,%edx
  100620:	80 fb 06             	cmp    $0x6,%bl
  100623:	0f 42 c2             	cmovb  %edx,%eax
        for (int k = 0; k < 2; k++) {
  100626:	8d 51 01             	lea    0x1(%ecx),%edx
  100629:	b9 01 00 00 00       	mov    $0x1,%ecx
  10062e:	83 fa 02             	cmp    $0x2,%edx
  100631:	75 2a                	jne    10065d <cmd_write_binary+0x13d>
        binary[binary_size++] = value;
  100633:	8b 95 64 fe ff ff    	mov    -0x19c(%ebp),%edx
    for (size_t idx = 0; idx < hex_len; idx += 2) {
  100639:	83 c6 02             	add    $0x2,%esi
        binary[binary_size++] = value;
  10063c:	88 02                	mov    %al,(%edx)
    for (size_t idx = 0; idx < hex_len; idx += 2) {
  10063e:	8b 85 60 fe ff ff    	mov    -0x1a0(%ebp),%eax
  100644:	83 c2 01             	add    $0x1,%edx
  100647:	39 c6                	cmp    %eax,%esi
  100649:	73 35                	jae    100680 <cmd_write_binary+0x160>
            char c = hexdata[idx + k];
  10064b:	89 95 64 fe ff ff    	mov    %edx,-0x19c(%ebp)
  100651:	8d bd f4 fe ff ff    	lea    -0x10c(%ebp),%edi
        for (int k = 0; k < 2; k++) {
  100657:	31 c9                	xor    %ecx,%ecx
        uint8_t value = 0;
  100659:	31 c0                	xor    %eax,%eax
            char c = hexdata[idx + k];
  10065b:	01 f7                	add    %esi,%edi
            if (c >= '0' && c <= '9') value |= c - '0';
  10065d:	0f b6 14 0f          	movzbl (%edi,%ecx,1),%edx
            value <<= 4;
  100661:	c1 e0 04             	shl    $0x4,%eax
            if (c >= '0' && c <= '9') value |= c - '0';
  100664:	8d 5a d0             	lea    -0x30(%edx),%ebx
  100667:	80 fb 09             	cmp    $0x9,%bl
  10066a:	77 a4                	ja     100610 <cmd_write_binary+0xf0>
  10066c:	09 d8                	or     %ebx,%eax
  10066e:	eb b6                	jmp    100626 <cmd_write_binary+0x106>
            else if (c >= 'A' && c <= 'F') value |= c - 'A' + 10;
  100670:	83 ea 37             	sub    $0x37,%edx
  100673:	09 d0                	or     %edx,%eax
  100675:	eb af                	jmp    100626 <cmd_write_binary+0x106>
  100677:	2e 8d b4 26 00 00 00 	lea    %cs:0x0(%esi,%eiz,1),%esi
  10067e:	00 
  10067f:	90                   	nop
  100680:	83 e8 01             	sub    $0x1,%eax
  100683:	8b bd 5c fe ff ff    	mov    -0x1a4(%ebp),%edi
  100689:	d1 e8                	shr    $1,%eax
  10068b:	83 c0 01             	add    $0x1,%eax
  10068e:	89 85 60 fe ff ff    	mov    %eax,-0x1a0(%ebp)
    if (fat32_write_file(filename, binary, binary_size)) {
  100694:	8d 85 74 fe ff ff    	lea    -0x18c(%ebp),%eax
  10069a:	ff b5 60 fe ff ff    	push   -0x1a0(%ebp)
  1006a0:	50                   	push   %eax
  1006a1:	57                   	push   %edi
  1006a2:	e8 f9 1a 00 00       	call   1021a0 <fat32_write_file>
  1006a7:	83 c4 0c             	add    $0xc,%esp
  1006aa:	85 c0                	test   %eax,%eax
  1006ac:	74 1a                	je     1006c8 <cmd_write_binary+0x1a8>
        vga_writestr("\nBinary file written successfully\n");
  1006ae:	68 b4 45 10 00       	push   $0x1045b4
  1006b3:	e8 38 27 00 00       	call   102df0 <vga_writestr>
  1006b8:	5a                   	pop    %edx
}
  1006b9:	8d 65 f4             	lea    -0xc(%ebp),%esp
  1006bc:	5b                   	pop    %ebx
  1006bd:	5e                   	pop    %esi
  1006be:	5f                   	pop    %edi
  1006bf:	5d                   	pop    %ebp
  1006c0:	c3                   	ret
  1006c1:	8d b4 26 00 00 00 00 	lea    0x0(%esi,%eiz,1),%esi
        vga_writestr("\nError writing binary file\n");
  1006c8:	68 67 41 10 00       	push   $0x104167
  1006cd:	e8 1e 27 00 00       	call   102df0 <vga_writestr>
  1006d2:	58                   	pop    %eax
}
  1006d3:	8d 65 f4             	lea    -0xc(%ebp),%esp
  1006d6:	5b                   	pop    %ebx
  1006d7:	5e                   	pop    %esi
  1006d8:	5f                   	pop    %edi
  1006d9:	5d                   	pop    %ebp
  1006da:	c3                   	ret
    int i = 0;
  1006db:	31 c9                	xor    %ecx,%ecx
  1006dd:	8d bd 68 fe ff ff    	lea    -0x198(%ebp),%edi
    while (args[i] == ' ') i++;  // Skip spaces
  1006e3:	3c 20                	cmp    $0x20,%al
  1006e5:	0f 84 b5 fe ff ff    	je     1005a0 <cmd_write_binary+0x80>
    int j = 0;
  1006eb:	31 c0                	xor    %eax,%eax
  1006ed:	e9 e3 fe ff ff       	jmp    1005d5 <cmd_write_binary+0xb5>
  1006f2:	2e 8d b4 26 00 00 00 	lea    %cs:0x0(%esi,%eiz,1),%esi
  1006f9:	00 
  1006fa:	8d b6 00 00 00 00    	lea    0x0(%esi),%esi

00100700 <print_prompt>:
static void print_prompt(void) {
  100700:	55                   	push   %ebp
  100701:	89 e5                	mov    %esp,%ebp
  100703:	53                   	push   %ebx
    vga_set_color(VGA_CYAN, VGA_BLACK);
  100704:	6a 00                	push   $0x0
  100706:	6a 03                	push   $0x3
  100708:	e8 e3 27 00 00       	call   102ef0 <vga_set_color>
    vga_writestr("user");
  10070d:	68 83 41 10 00       	push   $0x104183
  100712:	e8 d9 26 00 00       	call   102df0 <vga_writestr>
    vga_set_color(VGA_MAGENTA, VGA_BLACK);
  100717:	6a 00                	push   $0x0
  100719:	6a 05                	push   $0x5
  10071b:	e8 d0 27 00 00       	call   102ef0 <vga_set_color>
    vga_writestr("@");
  100720:	68 88 41 10 00       	push   $0x104188
  100725:	e8 c6 26 00 00       	call   102df0 <vga_writestr>
    const char* path = fat32_get_current_path();
  10072a:	e8 c1 0f 00 00       	call   1016f0 <fat32_get_current_path>
    vga_set_color(VGA_CYAN, VGA_BLACK);
  10072f:	6a 00                	push   $0x0
  100731:	6a 03                	push   $0x3
    const char* path = fat32_get_current_path();
  100733:	89 c3                	mov    %eax,%ebx
    vga_set_color(VGA_CYAN, VGA_BLACK);
  100735:	e8 b6 27 00 00       	call   102ef0 <vga_set_color>
    vga_writestr(path);
  10073a:	83 c4 20             	add    $0x20,%esp
  10073d:	53                   	push   %ebx
  10073e:	e8 ad 26 00 00       	call   102df0 <vga_writestr>
    vga_set_color(VGA_WHITE, VGA_BLACK);
  100743:	6a 00                	push   $0x0
  100745:	6a 0f                	push   $0xf
  100747:	e8 a4 27 00 00       	call   102ef0 <vga_set_color>
    vga_writestr("> ");
  10074c:	68 8a 41 10 00       	push   $0x10418a
  100751:	e8 9a 26 00 00       	call   102df0 <vga_writestr>
}
  100756:	8b 5d fc             	mov    -0x4(%ebp),%ebx
  100759:	83 c4 10             	add    $0x10,%esp
  10075c:	c9                   	leave
  10075d:	c3                   	ret
  10075e:	66 90                	xchg   %ax,%ax

00100760 <cmd_cat>:
void cmd_cat(const char* filename) {
  100760:	55                   	push   %ebp
  100761:	89 e5                	mov    %esp,%ebp
  100763:	57                   	push   %edi
  100764:	56                   	push   %esi
  100765:	53                   	push   %ebx
  100766:	83 ec 28             	sub    $0x28,%esp
  100769:	8b 5d 08             	mov    0x8(%ebp),%ebx
    if (!filename || !*filename) {
  10076c:	85 db                	test   %ebx,%ebx
  10076e:	74 05                	je     100775 <cmd_cat+0x15>
  100770:	80 3b 00             	cmpb   $0x0,(%ebx)
  100773:	75 1b                	jne    100790 <cmd_cat+0x30>
        vga_writestr("Usage: cat <filename>\n");
  100775:	c7 45 08 8d 41 10 00 	movl   $0x10418d,0x8(%ebp)
}
  10077c:	8d 65 f4             	lea    -0xc(%ebp),%esp
  10077f:	5b                   	pop    %ebx
  100780:	5e                   	pop    %esi
  100781:	5f                   	pop    %edi
  100782:	5d                   	pop    %ebp
        vga_writestr("Usage: cat <filename>\n");
  100783:	e9 68 26 00 00       	jmp    102df0 <vga_writestr>
  100788:	2e 8d b4 26 00 00 00 	lea    %cs:0x0(%esi,%eiz,1),%esi
  10078f:	00 
    memset(fat_name, ' ', 11);
  100790:	8d 75 d9             	lea    -0x27(%ebp),%esi
  100793:	6a 0b                	push   $0xb
  100795:	6a 20                	push   $0x20
  100797:	56                   	push   %esi
  100798:	e8 93 28 00 00       	call   103030 <memset>
    while (*dot && *dot != '.' && name_len < 8) {
  10079d:	0f b6 03             	movzbl (%ebx),%eax
  1007a0:	83 c4 0c             	add    $0xc,%esp
  1007a3:	84 c0                	test   %al,%al
  1007a5:	74 51                	je     1007f8 <cmd_cat+0x98>
  1007a7:	3c 2e                	cmp    $0x2e,%al
  1007a9:	0f 84 d1 00 00 00    	je     100880 <cmd_cat+0x120>
    size_t name_len = 0;
  1007af:	89 5d cc             	mov    %ebx,-0x34(%ebp)
  1007b2:	31 d2                	xor    %edx,%edx
  1007b4:	eb 0f                	jmp    1007c5 <cmd_cat+0x65>
  1007b6:	2e 8d b4 26 00 00 00 	lea    %cs:0x0(%esi,%eiz,1),%esi
  1007bd:	00 
  1007be:	66 90                	xchg   %ax,%ax
    while (*dot && *dot != '.' && name_len < 8) {
  1007c0:	83 fa 08             	cmp    $0x8,%edx
  1007c3:	74 30                	je     1007f5 <cmd_cat+0x95>
        fat_name[name_len] = (*dot >= 'a' && *dot <= 'z') ? 
  1007c5:	8d 78 9f             	lea    -0x61(%eax),%edi
                            (*dot - 'a' + 'A') : *dot;
  1007c8:	8d 48 e0             	lea    -0x20(%eax),%ecx
  1007cb:	89 fb                	mov    %edi,%ebx
  1007cd:	80 fb 1a             	cmp    $0x1a,%bl
  1007d0:	0f 42 c1             	cmovb  %ecx,%eax
        dot++;
  1007d3:	83 45 cc 01          	addl   $0x1,-0x34(%ebp)
        fat_name[name_len] = (*dot >= 'a' && *dot <= 'z') ? 
  1007d7:	88 04 16             	mov    %al,(%esi,%edx,1)
        dot++;
  1007da:	8b 45 cc             	mov    -0x34(%ebp),%eax
        name_len++;
  1007dd:	83 c2 01             	add    $0x1,%edx
    while (*dot && *dot != '.' && name_len < 8) {
  1007e0:	0f b6 00             	movzbl (%eax),%eax
  1007e3:	84 c0                	test   %al,%al
  1007e5:	0f 95 c1             	setne  %cl
  1007e8:	3c 2e                	cmp    $0x2e,%al
  1007ea:	89 cf                	mov    %ecx,%edi
  1007ec:	0f 95 c1             	setne  %cl
  1007ef:	89 fb                	mov    %edi,%ebx
  1007f1:	84 cb                	test   %cl,%bl
  1007f3:	75 cb                	jne    1007c0 <cmd_cat+0x60>
  1007f5:	8b 5d cc             	mov    -0x34(%ebp),%ebx
    if (*dot == '.' && dot[1]) {
  1007f8:	3c 2e                	cmp    $0x2e,%al
  1007fa:	0f 84 80 00 00 00    	je     100880 <cmd_cat+0x120>
    vga_writestr("Looking for file: '");
  100800:	68 a4 41 10 00       	push   $0x1041a4
  100805:	89 f7                	mov    %esi,%edi
  100807:	8d 5d e4             	lea    -0x1c(%ebp),%ebx
  10080a:	e8 e1 25 00 00       	call   102df0 <vga_writestr>
    for (int i = 0; i < 11; i++) {
  10080f:	58                   	pop    %eax
        char c[2] = {fat_name[i], '\0'};
  100810:	0f b6 07             	movzbl (%edi),%eax
  100813:	c6 45 e5 00          	movb   $0x0,-0x1b(%ebp)
    for (int i = 0; i < 11; i++) {
  100817:	83 c7 01             	add    $0x1,%edi
        char c[2] = {fat_name[i], '\0'};
  10081a:	88 45 e4             	mov    %al,-0x1c(%ebp)
        vga_writestr(c);
  10081d:	53                   	push   %ebx
  10081e:	e8 cd 25 00 00       	call   102df0 <vga_writestr>
    for (int i = 0; i < 11; i++) {
  100823:	58                   	pop    %eax
  100824:	39 fb                	cmp    %edi,%ebx
  100826:	75 e8                	jne    100810 <cmd_cat+0xb0>
    vga_writestr("'\n");
  100828:	68 b8 41 10 00       	push   $0x1041b8
  10082d:	e8 be 25 00 00       	call   102df0 <vga_writestr>
    if (!fat32_read_file(fat_name, buffer, &size)) {
  100832:	8d 45 d4             	lea    -0x2c(%ebp),%eax
    uint32_t size = sizeof(buffer) - 1;  // Leave room for null terminator
  100835:	c7 45 d4 ff 0f 00 00 	movl   $0xfff,-0x2c(%ebp)
    if (!fat32_read_file(fat_name, buffer, &size)) {
  10083c:	50                   	push   %eax
  10083d:	68 40 58 10 00       	push   $0x105840
  100842:	56                   	push   %esi
  100843:	e8 68 1b 00 00       	call   1023b0 <fat32_read_file>
  100848:	83 c4 10             	add    $0x10,%esp
  10084b:	89 c6                	mov    %eax,%esi
  10084d:	85 c0                	test   %eax,%eax
  10084f:	74 6f                	je     1008c0 <cmd_cat+0x160>
    buffer[size] = '\0';
  100851:	8b 45 d4             	mov    -0x2c(%ebp),%eax
  100854:	c6 80 40 58 10 00 00 	movb   $0x0,0x105840(%eax)
    vga_writestr(buffer);
  10085b:	68 40 58 10 00       	push   $0x105840
  100860:	e8 8b 25 00 00       	call   102df0 <vga_writestr>
    vga_writestr("\n");
  100865:	68 0a 44 10 00       	push   $0x10440a
  10086a:	e8 81 25 00 00       	call   102df0 <vga_writestr>
  10086f:	58                   	pop    %eax
  100870:	5a                   	pop    %edx
}
  100871:	8d 65 f4             	lea    -0xc(%ebp),%esp
  100874:	5b                   	pop    %ebx
  100875:	5e                   	pop    %esi
  100876:	5f                   	pop    %edi
  100877:	5d                   	pop    %ebp
  100878:	c3                   	ret
  100879:	8d b4 26 00 00 00 00 	lea    0x0(%esi,%eiz,1),%esi
    if (*dot == '.' && dot[1]) {
  100880:	0f b6 43 01          	movzbl 0x1(%ebx),%eax
  100884:	84 c0                	test   %al,%al
  100886:	0f 84 74 ff ff ff    	je     100800 <cmd_cat+0xa0>
        size_t ext_pos = 8;
  10088c:	ba 08 00 00 00       	mov    $0x8,%edx
  100891:	89 df                	mov    %ebx,%edi
            fat_name[ext_pos] = (*dot >= 'a' && *dot <= 'z') ? 
  100893:	8d 58 9f             	lea    -0x61(%eax),%ebx
                               (*dot - 'a' + 'A') : *dot;
  100896:	8d 48 e0             	lea    -0x20(%eax),%ecx
  100899:	80 fb 1a             	cmp    $0x1a,%bl
  10089c:	0f 42 c1             	cmovb  %ecx,%eax
            fat_name[ext_pos] = (*dot >= 'a' && *dot <= 'z') ? 
  10089f:	88 04 16             	mov    %al,(%esi,%edx,1)
            ext_pos++;
  1008a2:	83 c2 01             	add    $0x1,%edx
        while (*dot && ext_pos < 11) {
  1008a5:	0f b6 44 17 f9       	movzbl -0x7(%edi,%edx,1),%eax
  1008aa:	84 c0                	test   %al,%al
  1008ac:	0f 84 4e ff ff ff    	je     100800 <cmd_cat+0xa0>
  1008b2:	83 fa 0b             	cmp    $0xb,%edx
  1008b5:	75 dc                	jne    100893 <cmd_cat+0x133>
  1008b7:	e9 44 ff ff ff       	jmp    100800 <cmd_cat+0xa0>
  1008bc:	8d 74 26 00          	lea    0x0(%esi,%eiz,1),%esi
        vga_writestr("Error: File not found or error reading file (size=");
  1008c0:	68 d8 45 10 00       	push   $0x1045d8
  1008c5:	e8 26 25 00 00       	call   102df0 <vga_writestr>
        uint32_t temp = size;
  1008ca:	8b 4d d4             	mov    -0x2c(%ebp),%ecx
  1008cd:	5f                   	pop    %edi
  1008ce:	eb 30                	jmp    100900 <cmd_cat+0x1a0>
  1008d0:	2e 8d b4 26 00 00 00 	lea    %cs:0x0(%esi,%eiz,1),%esi
  1008d7:	00 
  1008d8:	2e 8d b4 26 00 00 00 	lea    %cs:0x0(%esi,%eiz,1),%esi
  1008df:	00 
  1008e0:	2e 8d b4 26 00 00 00 	lea    %cs:0x0(%esi,%eiz,1),%esi
  1008e7:	00 
  1008e8:	2e 8d b4 26 00 00 00 	lea    %cs:0x0(%esi,%eiz,1),%esi
  1008ef:	00 
  1008f0:	2e 8d b4 26 00 00 00 	lea    %cs:0x0(%esi,%eiz,1),%esi
  1008f7:	00 
  1008f8:	2e 8d b4 26 00 00 00 	lea    %cs:0x0(%esi,%eiz,1),%esi
  1008ff:	00 
            size_str[idx++] = '0' + (temp % 10);
  100900:	b8 cd cc cc cc       	mov    $0xcccccccd,%eax
  100905:	89 75 cc             	mov    %esi,-0x34(%ebp)
  100908:	83 c6 01             	add    $0x1,%esi
  10090b:	f7 e1                	mul    %ecx
  10090d:	89 c8                	mov    %ecx,%eax
  10090f:	c1 ea 03             	shr    $0x3,%edx
  100912:	8d 3c 92             	lea    (%edx,%edx,4),%edi
  100915:	01 ff                	add    %edi,%edi
  100917:	29 f8                	sub    %edi,%eax
  100919:	83 c0 30             	add    $0x30,%eax
  10091c:	88 44 35 e3          	mov    %al,-0x1d(%ebp,%esi,1)
            temp /= 10;
  100920:	89 c8                	mov    %ecx,%eax
  100922:	89 d1                	mov    %edx,%ecx
        } while (temp > 0);
  100924:	83 f8 09             	cmp    $0x9,%eax
  100927:	77 d7                	ja     100900 <cmd_cat+0x1a0>
        size_str[idx] = '\0';
  100929:	c6 44 35 e4 00       	movb   $0x0,-0x1c(%ebp,%esi,1)
        while (idx > 0) {
  10092e:	8b 75 cc             	mov    -0x34(%ebp),%esi
  100931:	8d 7d d2             	lea    -0x2e(%ebp),%edi
  100934:	01 de                	add    %ebx,%esi
  100936:	2e 8d b4 26 00 00 00 	lea    %cs:0x0(%esi,%eiz,1),%esi
  10093d:	00 
  10093e:	66 90                	xchg   %ax,%ax
            char c[2] = {size_str[--idx], '\0'};
  100940:	0f b6 06             	movzbl (%esi),%eax
  100943:	c6 45 d3 00          	movb   $0x0,-0x2d(%ebp)
  100947:	88 45 d2             	mov    %al,-0x2e(%ebp)
            vga_writestr(c);
  10094a:	57                   	push   %edi
  10094b:	e8 a0 24 00 00       	call   102df0 <vga_writestr>
        while (idx > 0) {
  100950:	89 f0                	mov    %esi,%eax
  100952:	5a                   	pop    %edx
  100953:	83 ee 01             	sub    $0x1,%esi
  100956:	39 c3                	cmp    %eax,%ebx
  100958:	75 e6                	jne    100940 <cmd_cat+0x1e0>
        vga_writestr(")\n");
  10095a:	68 bb 41 10 00       	push   $0x1041bb
  10095f:	e8 8c 24 00 00       	call   102df0 <vga_writestr>
        return;
  100964:	59                   	pop    %ecx
}
  100965:	8d 65 f4             	lea    -0xc(%ebp),%esp
  100968:	5b                   	pop    %ebx
  100969:	5e                   	pop    %esi
  10096a:	5f                   	pop    %edi
  10096b:	5d                   	pop    %ebp
  10096c:	c3                   	ret
  10096d:	8d 76 00             	lea    0x0(%esi),%esi

00100970 <cmd_exec>:
void cmd_exec(const char* filename) {
  100970:	55                   	push   %ebp
  100971:	89 e5                	mov    %esp,%ebp
  100973:	57                   	push   %edi
  100974:	56                   	push   %esi
  100975:	53                   	push   %ebx
  100976:	83 ec 20             	sub    $0x20,%esp
  100979:	8b 7d 08             	mov    0x8(%ebp),%edi
    if (!filename || !*filename) {
  10097c:	85 ff                	test   %edi,%edi
  10097e:	74 05                	je     100985 <cmd_exec+0x15>
  100980:	80 3f 00             	cmpb   $0x0,(%edi)
  100983:	75 1b                	jne    1009a0 <cmd_exec+0x30>
        vga_writestr("Usage: exec <filename>\n");
  100985:	c7 45 08 be 41 10 00 	movl   $0x1041be,0x8(%ebp)
}
  10098c:	8d 65 f4             	lea    -0xc(%ebp),%esp
  10098f:	5b                   	pop    %ebx
  100990:	5e                   	pop    %esi
  100991:	5f                   	pop    %edi
  100992:	5d                   	pop    %ebp
        vga_writestr("Usage: exec <filename>\n");
  100993:	e9 58 24 00 00       	jmp    102df0 <vga_writestr>
  100998:	2e 8d b4 26 00 00 00 	lea    %cs:0x0(%esi,%eiz,1),%esi
  10099f:	00 
    memset(fat_name, ' ', 11);  // Fill with spaces
  1009a0:	8d 45 e8             	lea    -0x18(%ebp),%eax
  1009a3:	6a 0b                	push   $0xb
    size_t name_len = 0;
  1009a5:	31 db                	xor    %ebx,%ebx
    memset(fat_name, ' ', 11);  // Fill with spaces
  1009a7:	6a 20                	push   $0x20
  1009a9:	50                   	push   %eax
  1009aa:	e8 81 26 00 00       	call   103030 <memset>
    while (dot[name_len] && dot[name_len] != '.') {
  1009af:	0f b6 0f             	movzbl (%edi),%ecx
    fat_name[11] = '\0';
  1009b2:	c6 45 f3 00          	movb   $0x0,-0xd(%ebp)
    while (dot[name_len] && dot[name_len] != '.') {
  1009b6:	83 c4 0c             	add    $0xc,%esp
  1009b9:	84 c9                	test   %cl,%cl
  1009bb:	74 65                	je     100a22 <cmd_exec+0xb2>
  1009bd:	80 f9 2e             	cmp    $0x2e,%cl
  1009c0:	74 60                	je     100a22 <cmd_exec+0xb2>
  1009c2:	2e 8d b4 26 00 00 00 	lea    %cs:0x0(%esi,%eiz,1),%esi
  1009c9:	00 
  1009ca:	8d b6 00 00 00 00    	lea    0x0(%esi),%esi
        name_len++;
  1009d0:	83 c3 01             	add    $0x1,%ebx
    while (dot[name_len] && dot[name_len] != '.') {
  1009d3:	0f b6 0c 1f          	movzbl (%edi,%ebx,1),%ecx
  1009d7:	84 c9                	test   %cl,%cl
  1009d9:	74 05                	je     1009e0 <cmd_exec+0x70>
  1009db:	80 f9 2e             	cmp    $0x2e,%cl
  1009de:	75 f0                	jne    1009d0 <cmd_exec+0x60>
    size_t copy_len = name_len > 8 ? 8 : name_len;
  1009e0:	b8 08 00 00 00       	mov    $0x8,%eax
    for (size_t i = 0; i < copy_len; i++) {
  1009e5:	88 4d db             	mov    %cl,-0x25(%ebp)
    size_t copy_len = name_len > 8 ? 8 : name_len;
  1009e8:	39 c3                	cmp    %eax,%ebx
    for (size_t i = 0; i < copy_len; i++) {
  1009ea:	89 5d d4             	mov    %ebx,-0x2c(%ebp)
    size_t copy_len = name_len > 8 ? 8 : name_len;
  1009ed:	0f 46 c3             	cmovbe %ebx,%eax
    for (size_t i = 0; i < copy_len; i++) {
  1009f0:	31 d2                	xor    %edx,%edx
    size_t copy_len = name_len > 8 ? 8 : name_len;
  1009f2:	89 c6                	mov    %eax,%esi
    for (size_t i = 0; i < copy_len; i++) {
  1009f4:	2e 8d b4 26 00 00 00 	lea    %cs:0x0(%esi,%eiz,1),%esi
  1009fb:	00 
  1009fc:	8d 74 26 00          	lea    0x0(%esi,%eiz,1),%esi
        char c = filename[i];
  100a00:	0f b6 04 17          	movzbl (%edi,%edx,1),%eax
        if (c >= 'a' && c <= 'z') {
  100a04:	8d 58 9f             	lea    -0x61(%eax),%ebx
            c = c - 'a' + 'A';
  100a07:	8d 48 e0             	lea    -0x20(%eax),%ecx
  100a0a:	80 fb 1a             	cmp    $0x1a,%bl
  100a0d:	0f 42 c1             	cmovb  %ecx,%eax
        fat_name[i] = c;
  100a10:	88 44 15 e8          	mov    %al,-0x18(%ebp,%edx,1)
    for (size_t i = 0; i < copy_len; i++) {
  100a14:	83 c2 01             	add    $0x1,%edx
  100a17:	39 d6                	cmp    %edx,%esi
  100a19:	75 e5                	jne    100a00 <cmd_exec+0x90>
  100a1b:	0f b6 4d db          	movzbl -0x25(%ebp),%ecx
  100a1f:	8b 5d d4             	mov    -0x2c(%ebp),%ebx
    if (dot[name_len] == '.' && dot[name_len + 1]) {
  100a22:	80 f9 2e             	cmp    $0x2e,%cl
  100a25:	0f 84 95 00 00 00    	je     100ac0 <cmd_exec+0x150>
    vga_writestr("FAT name: [");
  100a2b:	68 d6 41 10 00       	push   $0x1041d6
  100a30:	8d 7d e8             	lea    -0x18(%ebp),%edi
  100a33:	8d 5d f3             	lea    -0xd(%ebp),%ebx
  100a36:	e8 b5 23 00 00       	call   102df0 <vga_writestr>
    for(int i = 0; i < 11; i++) {
  100a3b:	5e                   	pop    %esi
  100a3c:	8d 75 dc             	lea    -0x24(%ebp),%esi
  100a3f:	eb 1c                	jmp    100a5d <cmd_exec+0xed>
  100a41:	8d b4 26 00 00 00 00 	lea    0x0(%esi,%eiz,1),%esi
            char c[2] = {fat_name[i], '\0'};
  100a48:	88 45 dc             	mov    %al,-0x24(%ebp)
    for(int i = 0; i < 11; i++) {
  100a4b:	83 c7 01             	add    $0x1,%edi
            char c[2] = {fat_name[i], '\0'};
  100a4e:	c6 45 dd 00          	movb   $0x0,-0x23(%ebp)
            vga_writestr(c);
  100a52:	56                   	push   %esi
  100a53:	e8 98 23 00 00       	call   102df0 <vga_writestr>
  100a58:	5a                   	pop    %edx
    for(int i = 0; i < 11; i++) {
  100a59:	39 fb                	cmp    %edi,%ebx
  100a5b:	74 19                	je     100a76 <cmd_exec+0x106>
        if(fat_name[i] == ' ') {
  100a5d:	0f b6 07             	movzbl (%edi),%eax
  100a60:	3c 20                	cmp    $0x20,%al
  100a62:	75 e4                	jne    100a48 <cmd_exec+0xd8>
            vga_writestr("_");  // Show spaces clearly
  100a64:	68 e2 41 10 00       	push   $0x1041e2
    for(int i = 0; i < 11; i++) {
  100a69:	83 c7 01             	add    $0x1,%edi
            vga_writestr("_");  // Show spaces clearly
  100a6c:	e8 7f 23 00 00       	call   102df0 <vga_writestr>
  100a71:	59                   	pop    %ecx
    for(int i = 0; i < 11; i++) {
  100a72:	39 fb                	cmp    %edi,%ebx
  100a74:	75 e7                	jne    100a5d <cmd_exec+0xed>
    vga_writestr("]\n");
  100a76:	68 e4 41 10 00       	push   $0x1041e4
  100a7b:	e8 70 23 00 00       	call   102df0 <vga_writestr>
    if (!load_program(fat_name, &prog_info)) {
  100a80:	8d 45 e8             	lea    -0x18(%ebp),%eax
  100a83:	56                   	push   %esi
  100a84:	50                   	push   %eax
  100a85:	e8 a6 1f 00 00       	call   102a30 <load_program>
  100a8a:	83 c4 0c             	add    $0xc,%esp
  100a8d:	85 c0                	test   %eax,%eax
  100a8f:	74 6f                	je     100b00 <cmd_exec+0x190>
    vga_writestr("Program loaded successfully. Executing...\n");
  100a91:	68 2c 46 10 00       	push   $0x10462c
  100a96:	e8 55 23 00 00       	call   102df0 <vga_writestr>
    jump_to_program(prog_info.entry_point, prog_info.stack_pointer);
  100a9b:	ff 75 e0             	push   -0x20(%ebp)
  100a9e:	ff 75 dc             	push   -0x24(%ebp)
  100aa1:	e8 1a 20 00 00       	call   102ac0 <jump_to_program>
    vga_writestr("Program execution completed\n");
  100aa6:	68 e7 41 10 00       	push   $0x1041e7
  100aab:	e8 40 23 00 00       	call   102df0 <vga_writestr>
  100ab0:	83 c4 10             	add    $0x10,%esp
}
  100ab3:	8d 65 f4             	lea    -0xc(%ebp),%esp
  100ab6:	5b                   	pop    %ebx
  100ab7:	5e                   	pop    %esi
  100ab8:	5f                   	pop    %edi
  100ab9:	5d                   	pop    %ebp
  100aba:	c3                   	ret
  100abb:	2e 8d 74 26 00       	lea    %cs:0x0(%esi,%eiz,1),%esi
    if (dot[name_len] == '.' && dot[name_len + 1]) {
  100ac0:	8d 4c 1f 01          	lea    0x1(%edi,%ebx,1),%ecx
  100ac4:	80 39 00             	cmpb   $0x0,(%ecx)
  100ac7:	0f 84 5e ff ff ff    	je     100a2b <cmd_exec+0xbb>
        for (size_t i = 0; i < 3 && ext[i]; i++) {
  100acd:	31 d2                	xor    %edx,%edx
            fat_name[8 + i] = c;
  100acf:	8d 7d f0             	lea    -0x10(%ebp),%edi
  100ad2:	89 ce                	mov    %ecx,%esi
        for (size_t i = 0; i < 3 && ext[i]; i++) {
  100ad4:	0f b6 04 16          	movzbl (%esi,%edx,1),%eax
  100ad8:	84 c0                	test   %al,%al
  100ada:	0f 84 4b ff ff ff    	je     100a2b <cmd_exec+0xbb>
            if (c >= 'a' && c <= 'z') {
  100ae0:	8d 48 9f             	lea    -0x61(%eax),%ecx
                c = c - 'a' + 'A';
  100ae3:	8d 58 e0             	lea    -0x20(%eax),%ebx
  100ae6:	80 f9 1a             	cmp    $0x1a,%cl
  100ae9:	0f 42 c3             	cmovb  %ebx,%eax
            fat_name[8 + i] = c;
  100aec:	88 04 17             	mov    %al,(%edi,%edx,1)
        for (size_t i = 0; i < 3 && ext[i]; i++) {
  100aef:	83 c2 01             	add    $0x1,%edx
  100af2:	83 fa 03             	cmp    $0x3,%edx
  100af5:	75 dd                	jne    100ad4 <cmd_exec+0x164>
  100af7:	e9 2f ff ff ff       	jmp    100a2b <cmd_exec+0xbb>
  100afc:	8d 74 26 00          	lea    0x0(%esi,%eiz,1),%esi
        vga_writestr("Error: Could not load program\n");
  100b00:	68 0c 46 10 00       	push   $0x10460c
  100b05:	e8 e6 22 00 00       	call   102df0 <vga_writestr>
        return;
  100b0a:	58                   	pop    %eax
}
  100b0b:	8d 65 f4             	lea    -0xc(%ebp),%esp
  100b0e:	5b                   	pop    %ebx
  100b0f:	5e                   	pop    %esi
  100b10:	5f                   	pop    %edi
  100b11:	5d                   	pop    %ebp
  100b12:	c3                   	ret
  100b13:	2e 8d b4 26 00 00 00 	lea    %cs:0x0(%esi,%eiz,1),%esi
  100b1a:	00 
  100b1b:	2e 8d 74 26 00       	lea    %cs:0x0(%esi,%eiz,1),%esi

00100b20 <shell_process_command>:

void shell_process_command(void) {
  100b20:	55                   	push   %ebp
    cmd_buffer[cmd_index] = '\0';
  100b21:	8b 0d 40 68 10 00    	mov    0x106840,%ecx
void shell_process_command(void) {
  100b27:	89 e5                	mov    %esp,%ebp
  100b29:	53                   	push   %ebx
    cmd_buffer[cmd_index] = '\0';
  100b2a:	c6 81 60 68 10 00 00 	movb   $0x0,0x106860(%ecx)
    char* command = cmd_buffer;
    char* arg = NULL;

    // Split command and argument
    for (size_t i = 0; i < cmd_index; i++) {
  100b31:	85 c9                	test   %ecx,%ecx
  100b33:	74 33                	je     100b68 <shell_process_command+0x48>
  100b35:	31 c0                	xor    %eax,%eax
  100b37:	eb 0b                	jmp    100b44 <shell_process_command+0x24>
  100b39:	8d b4 26 00 00 00 00 	lea    0x0(%esi,%eiz,1),%esi
  100b40:	39 c1                	cmp    %eax,%ecx
  100b42:	74 24                	je     100b68 <shell_process_command+0x48>
        if (cmd_buffer[i] == ' ') {
  100b44:	0f b6 90 60 68 10 00 	movzbl 0x106860(%eax),%edx
  100b4b:	89 c3                	mov    %eax,%ebx
            cmd_buffer[i] = '\0';
            arg = &cmd_buffer[i + 1];
  100b4d:	83 c0 01             	add    $0x1,%eax
        if (cmd_buffer[i] == ' ') {
  100b50:	80 fa 20             	cmp    $0x20,%dl
  100b53:	75 eb                	jne    100b40 <shell_process_command+0x20>
            cmd_buffer[i] = '\0';
  100b55:	c6 83 60 68 10 00 00 	movb   $0x0,0x106860(%ebx)
            arg = &cmd_buffer[i + 1];
  100b5c:	8d 98 60 68 10 00    	lea    0x106860(%eax),%ebx
            break;
  100b62:	eb 06                	jmp    100b6a <shell_process_command+0x4a>
  100b64:	8d 74 26 00          	lea    0x0(%esi,%eiz,1),%esi
    char* arg = NULL;
  100b68:	31 db                	xor    %ebx,%ebx
        }
    }

    // Process commands
    if (strcmp(command, "help") == 0) {
  100b6a:	68 04 42 10 00       	push   $0x104204
  100b6f:	68 60 68 10 00       	push   $0x106860
  100b74:	e8 97 25 00 00       	call   103110 <strcmp>
  100b79:	5a                   	pop    %edx
  100b7a:	59                   	pop    %ecx
  100b7b:	85 c0                	test   %eax,%eax
  100b7d:	0f 85 ad 00 00 00    	jne    100c30 <shell_process_command+0x110>
    vga_writestr("\nAvailable commands:");
  100b83:	68 09 42 10 00       	push   $0x104209
  100b88:	e8 63 22 00 00       	call   102df0 <vga_writestr>
    vga_writestr("\n  help   - Show this help message");
  100b8d:	68 58 46 10 00       	push   $0x104658
  100b92:	e8 59 22 00 00       	call   102df0 <vga_writestr>
    vga_writestr("\n  clear  - Clear the screen");
  100b97:	68 1e 42 10 00       	push   $0x10421e
  100b9c:	e8 4f 22 00 00       	call   102df0 <vga_writestr>
    vga_writestr("\n  about  - Show system information");
  100ba1:	68 7c 46 10 00       	push   $0x10467c
  100ba6:	e8 45 22 00 00       	call   102df0 <vga_writestr>
    vga_writestr("\n  ls     - List files in directory");
  100bab:	68 a0 46 10 00       	push   $0x1046a0
  100bb0:	e8 3b 22 00 00       	call   102df0 <vga_writestr>
    vga_writestr("\n  create - Create a new file");
  100bb5:	68 3b 42 10 00       	push   $0x10423b
  100bba:	e8 31 22 00 00       	call   102df0 <vga_writestr>
    vga_writestr("\n  delete - Delete a file");
  100bbf:	68 59 42 10 00       	push   $0x104259
  100bc4:	e8 27 22 00 00       	call   102df0 <vga_writestr>
    vga_writestr("\n  mkdir  - Create a new directory");
  100bc9:	68 c4 46 10 00       	push   $0x1046c4
  100bce:	e8 1d 22 00 00       	call   102df0 <vga_writestr>
    vga_writestr("\n  writeb - Write binary file (hex format)");
  100bd3:	83 c4 20             	add    $0x20,%esp
  100bd6:	68 e8 46 10 00       	push   $0x1046e8
  100bdb:	e8 10 22 00 00       	call   102df0 <vga_writestr>
    vga_writestr("\n  readb  - Read binary file (hex format)");
  100be0:	68 14 47 10 00       	push   $0x104714
  100be5:	e8 06 22 00 00       	call   102df0 <vga_writestr>
    vga_writestr("\n  cd     - Change directory");
  100bea:	68 73 42 10 00       	push   $0x104273
  100bef:	e8 fc 21 00 00       	call   102df0 <vga_writestr>
    vga_writestr("\n  cat    - Read file content");
  100bf4:	68 90 42 10 00       	push   $0x104290
  100bf9:	e8 f2 21 00 00       	call   102df0 <vga_writestr>
    vga_writestr("\n  exec   - Execute a binary");
  100bfe:	68 ae 42 10 00       	push   $0x1042ae
  100c03:	e8 e8 21 00 00       	call   102df0 <vga_writestr>
    vga_writestr("\n");
  100c08:	68 0a 44 10 00       	push   $0x10440a
  100c0d:	e8 de 21 00 00       	call   102df0 <vga_writestr>
    print_prompt();
  100c12:	e8 e9 fa ff ff       	call   100700 <print_prompt>
}
  100c17:	83 c4 18             	add    $0x18,%esp
    }
    else {
        print_prompt();
    }

    cmd_index = 0;
  100c1a:	c7 05 40 68 10 00 00 	movl   $0x0,0x106840
  100c21:	00 00 00 
}
  100c24:	8b 5d fc             	mov    -0x4(%ebp),%ebx
  100c27:	c9                   	leave
  100c28:	c3                   	ret
  100c29:	8d b4 26 00 00 00 00 	lea    0x0(%esi,%eiz,1),%esi
    else if (strcmp(command, "clear") == 0) {
  100c30:	68 cb 42 10 00       	push   $0x1042cb
  100c35:	68 60 68 10 00       	push   $0x106860
  100c3a:	e8 d1 24 00 00       	call   103110 <strcmp>
  100c3f:	5a                   	pop    %edx
  100c40:	59                   	pop    %ecx
  100c41:	85 c0                	test   %eax,%eax
  100c43:	75 1b                	jne    100c60 <shell_process_command+0x140>
    vga_clear();
  100c45:	e8 e6 21 00 00       	call   102e30 <vga_clear>
    print_prompt();
  100c4a:	e8 b1 fa ff ff       	call   100700 <print_prompt>
}
  100c4f:	8b 5d fc             	mov    -0x4(%ebp),%ebx
    cmd_index = 0;
  100c52:	c7 05 40 68 10 00 00 	movl   $0x0,0x106840
  100c59:	00 00 00 
}
  100c5c:	c9                   	leave
  100c5d:	c3                   	ret
  100c5e:	66 90                	xchg   %ax,%ax
    else if (strcmp(command, "about") == 0) {
  100c60:	68 d1 42 10 00       	push   $0x1042d1
  100c65:	68 60 68 10 00       	push   $0x106860
  100c6a:	e8 a1 24 00 00       	call   103110 <strcmp>
  100c6f:	5a                   	pop    %edx
  100c70:	59                   	pop    %ecx
  100c71:	85 c0                	test   %eax,%eax
  100c73:	74 43                	je     100cb8 <shell_process_command+0x198>
    else if (strcmp(command, "ls") == 0) {
  100c75:	68 e4 42 10 00       	push   $0x1042e4
  100c7a:	68 60 68 10 00       	push   $0x106860
  100c7f:	e8 8c 24 00 00       	call   103110 <strcmp>
  100c84:	5a                   	pop    %edx
  100c85:	59                   	pop    %ecx
  100c86:	85 c0                	test   %eax,%eax
  100c88:	75 53                	jne    100cdd <shell_process_command+0x1bd>
    vga_writestr("\nReading directory...\n");
  100c8a:	68 e7 42 10 00       	push   $0x1042e7
  100c8f:	e8 5c 21 00 00       	call   102df0 <vga_writestr>
    if (!fat32_list_directory(ls_callback)) {
  100c94:	68 40 04 10 00       	push   $0x100440
  100c99:	e8 82 0e 00 00       	call   101b20 <fat32_list_directory>
  100c9e:	5a                   	pop    %edx
  100c9f:	59                   	pop    %ecx
  100ca0:	85 c0                	test   %eax,%eax
  100ca2:	0f 84 c7 00 00 00    	je     100d6f <shell_process_command+0x24f>
        print_prompt();
  100ca8:	e8 53 fa ff ff       	call   100700 <print_prompt>
  100cad:	e9 68 ff ff ff       	jmp    100c1a <shell_process_command+0xfa>
  100cb2:	8d b6 00 00 00 00    	lea    0x0(%esi),%esi
    vga_writestr("\nRingOS v0.1");
  100cb8:	68 d7 42 10 00       	push   $0x1042d7
  100cbd:	e8 2e 21 00 00       	call   102df0 <vga_writestr>
    vga_writestr("\nA minimal operating system with FAT32 support");
  100cc2:	68 40 47 10 00       	push   $0x104740
  100cc7:	e8 24 21 00 00       	call   102df0 <vga_writestr>
}
  100ccc:	5b                   	pop    %ebx
}
  100ccd:	8b 5d fc             	mov    -0x4(%ebp),%ebx
}
  100cd0:	58                   	pop    %eax
    cmd_index = 0;
  100cd1:	c7 05 40 68 10 00 00 	movl   $0x0,0x106840
  100cd8:	00 00 00 
}
  100cdb:	c9                   	leave
  100cdc:	c3                   	ret
    else if (strcmp(command, "create") == 0) {
  100cdd:	68 fe 42 10 00       	push   $0x1042fe
  100ce2:	68 60 68 10 00       	push   $0x106860
  100ce7:	e8 24 24 00 00       	call   103110 <strcmp>
  100cec:	5a                   	pop    %edx
  100ced:	59                   	pop    %ecx
  100cee:	85 c0                	test   %eax,%eax
  100cf0:	74 4f                	je     100d41 <shell_process_command+0x221>
    else if (strcmp(command, "delete") == 0) {
  100cf2:	68 3c 43 10 00       	push   $0x10433c
  100cf7:	68 60 68 10 00       	push   $0x106860
  100cfc:	e8 0f 24 00 00       	call   103110 <strcmp>
  100d01:	5a                   	pop    %edx
  100d02:	59                   	pop    %ecx
  100d03:	85 c0                	test   %eax,%eax
  100d05:	0f 85 94 00 00 00    	jne    100d9f <shell_process_command+0x27f>
    if (!filename || strlen(filename) == 0) {
  100d0b:	85 db                	test   %ebx,%ebx
  100d0d:	0f 84 d3 00 00 00    	je     100de6 <shell_process_command+0x2c6>
  100d13:	53                   	push   %ebx
  100d14:	e8 e7 22 00 00       	call   103000 <strlen>
  100d19:	59                   	pop    %ecx
  100d1a:	85 c0                	test   %eax,%eax
  100d1c:	0f 84 c4 00 00 00    	je     100de6 <shell_process_command+0x2c6>
    if (!fat32_delete_file(filename)) {
  100d22:	53                   	push   %ebx
  100d23:	e8 98 10 00 00       	call   101dc0 <fat32_delete_file>
  100d28:	5a                   	pop    %edx
  100d29:	85 c0                	test   %eax,%eax
  100d2b:	0f 85 29 01 00 00    	jne    100e5a <shell_process_command+0x33a>
        vga_writestr("\nError deleting file. Please try again.\n");
  100d31:	68 e8 47 10 00       	push   $0x1047e8
  100d36:	e8 b5 20 00 00       	call   102df0 <vga_writestr>
  100d3b:	58                   	pop    %eax
  100d3c:	e9 67 ff ff ff       	jmp    100ca8 <shell_process_command+0x188>
    if (!filename || strlen(filename) == 0) {
  100d41:	85 db                	test   %ebx,%ebx
  100d43:	74 3a                	je     100d7f <shell_process_command+0x25f>
  100d45:	53                   	push   %ebx
  100d46:	e8 b5 22 00 00       	call   103000 <strlen>
  100d4b:	59                   	pop    %ecx
  100d4c:	85 c0                	test   %eax,%eax
  100d4e:	74 2f                	je     100d7f <shell_process_command+0x25f>
    if (!fat32_create_file(filename)) {
  100d50:	53                   	push   %ebx
  100d51:	e8 1a 0f 00 00       	call   101c70 <fat32_create_file>
  100d56:	5a                   	pop    %edx
  100d57:	85 c0                	test   %eax,%eax
  100d59:	0f 85 d0 00 00 00    	jne    100e2f <shell_process_command+0x30f>
        vga_writestr("\nError creating file. Please try again.\n");
  100d5f:	68 bc 47 10 00       	push   $0x1047bc
  100d64:	e8 87 20 00 00       	call   102df0 <vga_writestr>
  100d69:	58                   	pop    %eax
  100d6a:	e9 39 ff ff ff       	jmp    100ca8 <shell_process_command+0x188>
        vga_writestr("Error reading directory. Please try again.\n");
  100d6f:	68 70 47 10 00       	push   $0x104770
  100d74:	e8 77 20 00 00       	call   102df0 <vga_writestr>
  100d79:	5b                   	pop    %ebx
    print_prompt();
  100d7a:	e9 29 ff ff ff       	jmp    100ca8 <shell_process_command+0x188>
        vga_writestr("\nError: No filename specified\n");
  100d7f:	68 9c 47 10 00       	push   $0x10479c
  100d84:	e8 67 20 00 00       	call   102df0 <vga_writestr>
        vga_writestr("Usage: create <filename>\n");
  100d89:	68 05 43 10 00       	push   $0x104305
  100d8e:	e8 5d 20 00 00       	call   102df0 <vga_writestr>
        print_prompt();
  100d93:	e8 68 f9 ff ff       	call   100700 <print_prompt>
        return;
  100d98:	5b                   	pop    %ebx
  100d99:	58                   	pop    %eax
  100d9a:	e9 7b fe ff ff       	jmp    100c1a <shell_process_command+0xfa>
    else if (strcmp(command, "mkdir") == 0) {
  100d9f:	68 7a 43 10 00       	push   $0x10437a
  100da4:	68 60 68 10 00       	push   $0x106860
  100da9:	e8 62 23 00 00       	call   103110 <strcmp>
  100dae:	5a                   	pop    %edx
  100daf:	59                   	pop    %ecx
  100db0:	85 c0                	test   %eax,%eax
  100db2:	75 52                	jne    100e06 <shell_process_command+0x2e6>
    if (!dirname || strlen(dirname) == 0) {
  100db4:	85 db                	test   %ebx,%ebx
  100db6:	0f 84 83 00 00 00    	je     100e3f <shell_process_command+0x31f>
  100dbc:	53                   	push   %ebx
  100dbd:	e8 3e 22 00 00       	call   103000 <strlen>
  100dc2:	59                   	pop    %ecx
  100dc3:	85 c0                	test   %eax,%eax
  100dc5:	74 78                	je     100e3f <shell_process_command+0x31f>
    if (fat32_create_directory(dirname)) {
  100dc7:	53                   	push   %ebx
  100dc8:	e8 33 11 00 00       	call   101f00 <fat32_create_directory>
  100dcd:	5a                   	pop    %edx
  100dce:	85 c0                	test   %eax,%eax
  100dd0:	0f 84 0b 01 00 00    	je     100ee1 <shell_process_command+0x3c1>
        vga_writestr("\nDirectory created successfully\n");
  100dd6:	68 3c 48 10 00       	push   $0x10483c
  100ddb:	e8 10 20 00 00       	call   102df0 <vga_writestr>
  100de0:	58                   	pop    %eax
  100de1:	e9 34 fe ff ff       	jmp    100c1a <shell_process_command+0xfa>
        vga_writestr("\nError: No filename specified\n");
  100de6:	68 9c 47 10 00       	push   $0x10479c
  100deb:	e8 00 20 00 00       	call   102df0 <vga_writestr>
        vga_writestr("Usage: delete <filename>\n");
  100df0:	68 43 43 10 00       	push   $0x104343
  100df5:	e8 f6 1f 00 00       	call   102df0 <vga_writestr>
        print_prompt();
  100dfa:	e8 01 f9 ff ff       	call   100700 <print_prompt>
        return;
  100dff:	5b                   	pop    %ebx
  100e00:	58                   	pop    %eax
  100e01:	e9 14 fe ff ff       	jmp    100c1a <shell_process_command+0xfa>
    else if (strcmp(command, "writeb") == 0 && arg) {
  100e06:	68 b3 43 10 00       	push   $0x1043b3
  100e0b:	68 60 68 10 00       	push   $0x106860
  100e10:	e8 fb 22 00 00       	call   103110 <strcmp>
  100e15:	5a                   	pop    %edx
  100e16:	59                   	pop    %ecx
  100e17:	85 c0                	test   %eax,%eax
  100e19:	0f 85 99 00 00 00    	jne    100eb8 <shell_process_command+0x398>
  100e1f:	85 db                	test   %ebx,%ebx
  100e21:	74 47                	je     100e6a <shell_process_command+0x34a>
        cmd_write_binary(arg);
  100e23:	89 d8                	mov    %ebx,%eax
  100e25:	e8 f6 f6 ff ff       	call   100520 <cmd_write_binary>
  100e2a:	e9 eb fd ff ff       	jmp    100c1a <shell_process_command+0xfa>
        vga_writestr("\nFile created successfully.\n");
  100e2f:	68 1f 43 10 00       	push   $0x10431f
  100e34:	e8 b7 1f 00 00       	call   102df0 <vga_writestr>
  100e39:	5b                   	pop    %ebx
  100e3a:	e9 69 fe ff ff       	jmp    100ca8 <shell_process_command+0x188>
        vga_writestr("\nError: No directory name specified\n");
  100e3f:	68 14 48 10 00       	push   $0x104814
  100e44:	e8 a7 1f 00 00       	call   102df0 <vga_writestr>
        vga_writestr("Usage: mkdir <dirname>\n");
  100e49:	68 80 43 10 00       	push   $0x104380
  100e4e:	e8 9d 1f 00 00       	call   102df0 <vga_writestr>
        return;
  100e53:	5b                   	pop    %ebx
  100e54:	58                   	pop    %eax
  100e55:	e9 c0 fd ff ff       	jmp    100c1a <shell_process_command+0xfa>
        vga_writestr("\nFile deleted successfully.\n");
  100e5a:	68 5d 43 10 00       	push   $0x10435d
  100e5f:	e8 8c 1f 00 00       	call   102df0 <vga_writestr>
  100e64:	5b                   	pop    %ebx
  100e65:	e9 3e fe ff ff       	jmp    100ca8 <shell_process_command+0x188>
    else if (strcmp(command, "readb") == 0 && arg) {
  100e6a:	68 ba 43 10 00       	push   $0x1043ba
  100e6f:	68 60 68 10 00       	push   $0x106860
  100e74:	e8 97 22 00 00       	call   103110 <strcmp>
    else if (strcmp(command, "cd") == 0) {
  100e79:	68 c0 43 10 00       	push   $0x1043c0
  100e7e:	68 60 68 10 00       	push   $0x106860
  100e83:	e8 88 22 00 00       	call   103110 <strcmp>
  100e88:	83 c4 10             	add    $0x10,%esp
  100e8b:	85 c0                	test   %eax,%eax
  100e8d:	0f 84 ed 00 00 00    	je     100f80 <shell_process_command+0x460>
    else if (strcmp(command, "cat") == 0) {
  100e93:	68 d8 43 10 00       	push   $0x1043d8
  100e98:	68 60 68 10 00       	push   $0x106860
  100e9d:	e8 6e 22 00 00       	call   103110 <strcmp>
  100ea2:	5a                   	pop    %edx
  100ea3:	59                   	pop    %ecx
  100ea4:	85 c0                	test   %eax,%eax
  100ea6:	0f 85 9a 00 00 00    	jne    100f46 <shell_process_command+0x426>
        cmd_cat(arg);
  100eac:	53                   	push   %ebx
  100ead:	e8 ae f8 ff ff       	call   100760 <cmd_cat>
  100eb2:	5b                   	pop    %ebx
  100eb3:	e9 62 fd ff ff       	jmp    100c1a <shell_process_command+0xfa>
    else if (strcmp(command, "readb") == 0 && arg) {
  100eb8:	68 ba 43 10 00       	push   $0x1043ba
  100ebd:	68 60 68 10 00       	push   $0x106860
  100ec2:	e8 49 22 00 00       	call   103110 <strcmp>
  100ec7:	5a                   	pop    %edx
  100ec8:	59                   	pop    %ecx
  100ec9:	85 c0                	test   %eax,%eax
  100ecb:	75 24                	jne    100ef1 <shell_process_command+0x3d1>
  100ecd:	85 db                	test   %ebx,%ebx
  100ecf:	0f 84 92 00 00 00    	je     100f67 <shell_process_command+0x447>
        cmd_read_binary(arg);
  100ed5:	89 d8                	mov    %ebx,%eax
  100ed7:	e8 a4 f4 ff ff       	call   100380 <cmd_read_binary>
  100edc:	e9 39 fd ff ff       	jmp    100c1a <shell_process_command+0xfa>
        vga_writestr("\nError creating directory\n");
  100ee1:	68 98 43 10 00       	push   $0x104398
  100ee6:	e8 05 1f 00 00       	call   102df0 <vga_writestr>
  100eeb:	5b                   	pop    %ebx
  100eec:	e9 29 fd ff ff       	jmp    100c1a <shell_process_command+0xfa>
    else if (strcmp(command, "cd") == 0) {
  100ef1:	68 c0 43 10 00       	push   $0x1043c0
  100ef6:	68 60 68 10 00       	push   $0x106860
  100efb:	e8 10 22 00 00       	call   103110 <strcmp>
  100f00:	5a                   	pop    %edx
  100f01:	59                   	pop    %ecx
  100f02:	85 c0                	test   %eax,%eax
  100f04:	75 8d                	jne    100e93 <shell_process_command+0x373>
    if (!dirname || strlen(dirname) == 0) {
  100f06:	85 db                	test   %ebx,%ebx
  100f08:	74 76                	je     100f80 <shell_process_command+0x460>
  100f0a:	53                   	push   %ebx
  100f0b:	e8 f0 20 00 00       	call   103000 <strlen>
  100f10:	59                   	pop    %ecx
  100f11:	85 c0                	test   %eax,%eax
  100f13:	74 6b                	je     100f80 <shell_process_command+0x460>
    if (fat32_change_directory(dirname)) {
  100f15:	53                   	push   %ebx
  100f16:	e8 45 08 00 00       	call   101760 <fat32_change_directory>
  100f1b:	5a                   	pop    %edx
  100f1c:	85 c0                	test   %eax,%eax
  100f1e:	0f 85 f6 fc ff ff    	jne    100c1a <shell_process_command+0xfa>
        vga_writestr("\nError: Cannot change to directory '");
  100f24:	68 60 48 10 00       	push   $0x104860
  100f29:	e8 c2 1e 00 00       	call   102df0 <vga_writestr>
        vga_writestr(dirname);
  100f2e:	53                   	push   %ebx
  100f2f:	e8 bc 1e 00 00       	call   102df0 <vga_writestr>
        vga_writestr("'\n");
  100f34:	68 b8 41 10 00       	push   $0x1041b8
  100f39:	e8 b2 1e 00 00       	call   102df0 <vga_writestr>
  100f3e:	83 c4 0c             	add    $0xc,%esp
  100f41:	e9 d4 fc ff ff       	jmp    100c1a <shell_process_command+0xfa>
    else if (strcmp(command, "exec") == 0) {
  100f46:	68 dc 43 10 00       	push   $0x1043dc
  100f4b:	68 60 68 10 00       	push   $0x106860
  100f50:	e8 bb 21 00 00       	call   103110 <strcmp>
  100f55:	5a                   	pop    %edx
  100f56:	59                   	pop    %ecx
  100f57:	85 c0                	test   %eax,%eax
  100f59:	75 4c                	jne    100fa7 <shell_process_command+0x487>
        cmd_exec(arg);
  100f5b:	53                   	push   %ebx
  100f5c:	e8 0f fa ff ff       	call   100970 <cmd_exec>
  100f61:	5b                   	pop    %ebx
  100f62:	e9 b3 fc ff ff       	jmp    100c1a <shell_process_command+0xfa>
    else if (strcmp(command, "cd") == 0) {
  100f67:	68 c0 43 10 00       	push   $0x1043c0
  100f6c:	68 60 68 10 00       	push   $0x106860
  100f71:	e8 9a 21 00 00       	call   103110 <strcmp>
  100f76:	5a                   	pop    %edx
  100f77:	59                   	pop    %ecx
  100f78:	85 c0                	test   %eax,%eax
  100f7a:	0f 85 13 ff ff ff    	jne    100e93 <shell_process_command+0x373>
        vga_writestr("\nCurrent directory: ");
  100f80:	68 c3 43 10 00       	push   $0x1043c3
  100f85:	e8 66 1e 00 00       	call   102df0 <vga_writestr>
        vga_writestr(fat32_get_current_path());
  100f8a:	e8 61 07 00 00       	call   1016f0 <fat32_get_current_path>
  100f8f:	50                   	push   %eax
  100f90:	e8 5b 1e 00 00       	call   102df0 <vga_writestr>
        vga_writestr("\n");
  100f95:	68 0a 44 10 00       	push   $0x10440a
  100f9a:	e8 51 1e 00 00       	call   102df0 <vga_writestr>
        return;
  100f9f:	83 c4 0c             	add    $0xc,%esp
  100fa2:	e9 73 fc ff ff       	jmp    100c1a <shell_process_command+0xfa>
    else if (strcmp(command, "int") == 0) {
  100fa7:	68 e1 43 10 00       	push   $0x1043e1
  100fac:	68 60 68 10 00       	push   $0x106860
  100fb1:	e8 5a 21 00 00       	call   103110 <strcmp>
  100fb6:	5a                   	pop    %edx
  100fb7:	59                   	pop    %ecx
  100fb8:	85 c0                	test   %eax,%eax
  100fba:	74 38                	je     100ff4 <shell_process_command+0x4d4>
    else if (cmd_index > 0) {
  100fbc:	83 3d 40 68 10 00 00 	cmpl   $0x0,0x106840
  100fc3:	0f 84 df fc ff ff    	je     100ca8 <shell_process_command+0x188>
        vga_writestr("\nUnknown command: ");
  100fc9:	68 e5 43 10 00       	push   $0x1043e5
  100fce:	e8 1d 1e 00 00       	call   102df0 <vga_writestr>
        vga_writestr(command);
  100fd3:	68 60 68 10 00       	push   $0x106860
  100fd8:	e8 13 1e 00 00       	call   102df0 <vga_writestr>
        vga_writestr("\nType 'help' for available commands.\n");
  100fdd:	68 88 48 10 00       	push   $0x104888
  100fe2:	e8 09 1e 00 00       	call   102df0 <vga_writestr>
        print_prompt();
  100fe7:	e8 14 f7 ff ff       	call   100700 <print_prompt>
  100fec:	83 c4 0c             	add    $0xc,%esp
  100fef:	e9 26 fc ff ff       	jmp    100c1a <shell_process_command+0xfa>
        asm volatile("int $0x80");
  100ff4:	cd 80                	int    $0x80
  100ff6:	e9 ad fc ff ff       	jmp    100ca8 <shell_process_command+0x188>
  100ffb:	2e 8d 74 26 00       	lea    %cs:0x0(%esi,%eiz,1),%esi

00101000 <shell_handle_keypress>:

void shell_handle_keypress(char c) {
  101000:	55                   	push   %ebp
  101001:	89 e5                	mov    %esp,%ebp
  101003:	8b 45 08             	mov    0x8(%ebp),%eax
    if (c == '\n') {
  101006:	3c 0a                	cmp    $0xa,%al
  101008:	74 36                	je     101040 <shell_handle_keypress+0x40>
        vga_putchar('\n');
        shell_process_command();
    }
    else if (c == '\b' && cmd_index > 0) {
  10100a:	3c 08                	cmp    $0x8,%al
  10100c:	74 0a                	je     101018 <shell_handle_keypress+0x18>
        cmd_index--;
        vga_putchar('\b');
    }
    else if (c && cmd_index < MAX_CMD_LENGTH - 1 && c != '\b') {
  10100e:	84 c0                	test   %al,%al
  101010:	75 3e                	jne    101050 <shell_handle_keypress+0x50>
        cmd_buffer[cmd_index++] = c;
        vga_putchar(c);
    }
}
  101012:	c9                   	leave
  101013:	c3                   	ret
  101014:	8d 74 26 00          	lea    0x0(%esi,%eiz,1),%esi
    else if (c == '\b' && cmd_index > 0) {
  101018:	a1 40 68 10 00       	mov    0x106840,%eax
  10101d:	85 c0                	test   %eax,%eax
  10101f:	74 f1                	je     101012 <shell_handle_keypress+0x12>
        cmd_index--;
  101021:	83 e8 01             	sub    $0x1,%eax
        vga_putchar('\b');
  101024:	c7 45 08 08 00 00 00 	movl   $0x8,0x8(%ebp)
        cmd_index--;
  10102b:	a3 40 68 10 00       	mov    %eax,0x106840
}
  101030:	c9                   	leave
        vga_putchar('\b');
  101031:	e9 5a 1c 00 00       	jmp    102c90 <vga_putchar>
  101036:	2e 8d b4 26 00 00 00 	lea    %cs:0x0(%esi,%eiz,1),%esi
  10103d:	00 
  10103e:	66 90                	xchg   %ax,%ax
        vga_putchar('\n');
  101040:	6a 0a                	push   $0xa
  101042:	e8 49 1c 00 00       	call   102c90 <vga_putchar>
        shell_process_command();
  101047:	58                   	pop    %eax
}
  101048:	c9                   	leave
        shell_process_command();
  101049:	e9 d2 fa ff ff       	jmp    100b20 <shell_process_command>
  10104e:	66 90                	xchg   %ax,%ax
    else if (c && cmd_index < MAX_CMD_LENGTH - 1 && c != '\b') {
  101050:	8b 15 40 68 10 00    	mov    0x106840,%edx
  101056:	81 fa fe 00 00 00    	cmp    $0xfe,%edx
  10105c:	77 b4                	ja     101012 <shell_handle_keypress+0x12>
        cmd_buffer[cmd_index++] = c;
  10105e:	88 82 60 68 10 00    	mov    %al,0x106860(%edx)
  101064:	8d 4a 01             	lea    0x1(%edx),%ecx
        vga_putchar(c);
  101067:	0f be c0             	movsbl %al,%eax
        cmd_buffer[cmd_index++] = c;
  10106a:	89 0d 40 68 10 00    	mov    %ecx,0x106840
        vga_putchar(c);
  101070:	89 45 08             	mov    %eax,0x8(%ebp)
}
  101073:	c9                   	leave
        vga_putchar(c);
  101074:	e9 17 1c 00 00       	jmp    102c90 <vga_putchar>
  101079:	8d b4 26 00 00 00 00 	lea    0x0(%esi,%eiz,1),%esi

00101080 <shell_init>:

void shell_init(void) {
  101080:	55                   	push   %ebp
    cmd_index = 0;
  101081:	c7 05 40 68 10 00 00 	movl   $0x0,0x106840
  101088:	00 00 00 
void shell_init(void) {
  10108b:	89 e5                	mov    %esp,%ebp
    vga_clear();
  10108d:	e8 9e 1d 00 00       	call   102e30 <vga_clear>
    vga_set_color(VGA_BLUE, VGA_WHITE);
  101092:	6a 0f                	push   $0xf
  101094:	6a 01                	push   $0x1
  101096:	e8 55 1e 00 00       	call   102ef0 <vga_set_color>
    vga_writestr("Welcome to RingOS!\n");
  10109b:	68 f8 43 10 00       	push   $0x1043f8
  1010a0:	e8 4b 1d 00 00       	call   102df0 <vga_writestr>
    vga_set_color(VGA_WHITE, VGA_BLACK);
  1010a5:	6a 00                	push   $0x0
  1010a7:	6a 0f                	push   $0xf
  1010a9:	e8 42 1e 00 00       	call   102ef0 <vga_set_color>
    vga_writestr("Type 'help' for available commands.\n");
  1010ae:	68 b0 48 10 00       	push   $0x1048b0
  1010b3:	e8 38 1d 00 00       	call   102df0 <vga_writestr>
    print_prompt();
  1010b8:	83 c4 18             	add    $0x18,%esp
}
  1010bb:	c9                   	leave
    print_prompt();
  1010bc:	e9 3f f6 ff ff       	jmp    100700 <print_prompt>
  1010c1:	2e 8d b4 26 00 00 00 	lea    %cs:0x0(%esi,%eiz,1),%esi
  1010c8:	00 
  1010c9:	8d b4 26 00 00 00 00 	lea    0x0(%esi,%eiz,1),%esi

001010d0 <shell_run>:

void shell_run(void) {
  1010d0:	55                   	push   %ebp
  1010d1:	89 e5                	mov    %esp,%ebp
  1010d3:	2e 8d b4 26 00 00 00 	lea    %cs:0x0(%esi,%eiz,1),%esi
  1010da:	00 
  1010db:	2e 8d 74 26 00       	lea    %cs:0x0(%esi,%eiz,1),%esi
    while (1) {
        char c = keyboard_read();
  1010e0:	e8 eb 17 00 00       	call   1028d0 <keyboard_read>
        if (c) {
  1010e5:	84 c0                	test   %al,%al
  1010e7:	74 f7                	je     1010e0 <shell_run+0x10>
            shell_handle_keypress(c);
  1010e9:	0f be c0             	movsbl %al,%eax
  1010ec:	50                   	push   %eax
  1010ed:	e8 0e ff ff ff       	call   101000 <shell_handle_keypress>
  1010f2:	58                   	pop    %eax
  1010f3:	eb eb                	jmp    1010e0 <shell_run+0x10>
  1010f5:	66 90                	xchg   %ax,%ax
  1010f7:	66 90                	xchg   %ax,%ax
  1010f9:	66 90                	xchg   %ax,%ax
  1010fb:	66 90                	xchg   %ax,%ax
  1010fd:	66 90                	xchg   %ax,%ax
  1010ff:	90                   	nop

00101100 <ata_init>:
        ata_400ns_delay();
    }
    return false;
}

bool ata_init(void) {
  101100:	55                   	push   %ebp
  101101:	89 e5                	mov    %esp,%ebp
  101103:	53                   	push   %ebx
    if (ata_initialized) {
  101104:	8b 1d 60 69 10 00    	mov    0x106960,%ebx
  10110a:	85 db                	test   %ebx,%ebx
  10110c:	74 12                	je     101120 <ata_init+0x20>
        return true;
  10110e:	bb 01 00 00 00       	mov    $0x1,%ebx
        inw(ATA_DATA);
    }

    ata_initialized = true;
    return true;
}
  101113:	89 d8                	mov    %ebx,%eax
  101115:	8b 5d fc             	mov    -0x4(%ebp),%ebx
  101118:	c9                   	leave
  101119:	c3                   	ret
  10111a:	8d b6 00 00 00 00    	lea    0x0(%esi),%esi
    asm volatile("inb %1, %0" : "=a"(ret) : "Nd"(port));
    return ret;
}

static inline void outb(uint16_t port, uint8_t value) {
    asm volatile("outb %0, %1" : : "a"(value), "Nd"(port));
  101120:	b8 a0 ff ff ff       	mov    $0xffffffa0,%eax
  101125:	ba f6 01 00 00       	mov    $0x1f6,%edx
  10112a:	ee                   	out    %al,(%dx)
    asm volatile("inb %1, %0" : "=a"(ret) : "Nd"(port));
  10112b:	ba f7 01 00 00       	mov    $0x1f7,%edx
  101130:	ec                   	in     (%dx),%al
  101131:	ec                   	in     (%dx),%al
  101132:	ec                   	in     (%dx),%al
  101133:	ec                   	in     (%dx),%al
  101134:	b9 9f 86 01 00       	mov    $0x1869f,%ecx
  101139:	eb 0e                	jmp    101149 <ata_init+0x49>
  10113b:	2e 8d 74 26 00       	lea    %cs:0x0(%esi,%eiz,1),%esi
  101140:	ec                   	in     (%dx),%al
  101141:	ec                   	in     (%dx),%al
  101142:	ec                   	in     (%dx),%al
  101143:	ec                   	in     (%dx),%al
    while (--timeout) {
  101144:	83 e9 01             	sub    $0x1,%ecx
  101147:	74 4f                	je     101198 <ata_init+0x98>
  101149:	ec                   	in     (%dx),%al
        if (!(status & ATA_SR_BSY)) {
  10114a:	84 c0                	test   %al,%al
  10114c:	78 f2                	js     101140 <ata_init+0x40>
    asm volatile("outb %0, %1" : : "a"(value), "Nd"(port));
  10114e:	b8 ec ff ff ff       	mov    $0xffffffec,%eax
  101153:	ee                   	out    %al,(%dx)
    asm volatile("inb %1, %0" : "=a"(ret) : "Nd"(port));
  101154:	ec                   	in     (%dx),%al
  101155:	ec                   	in     (%dx),%al
  101156:	ec                   	in     (%dx),%al
  101157:	ec                   	in     (%dx),%al
  101158:	b9 9f 86 01 00       	mov    $0x1869f,%ecx
  10115d:	ba f7 01 00 00       	mov    $0x1f7,%edx
  101162:	eb 0d                	jmp    101171 <ata_init+0x71>
  101164:	8d 74 26 00          	lea    0x0(%esi,%eiz,1),%esi
  101168:	ec                   	in     (%dx),%al
  101169:	ec                   	in     (%dx),%al
  10116a:	ec                   	in     (%dx),%al
  10116b:	ec                   	in     (%dx),%al
    while (--timeout) {
  10116c:	83 e9 01             	sub    $0x1,%ecx
  10116f:	74 39                	je     1011aa <ata_init+0xaa>
  101171:	ec                   	in     (%dx),%al
        if (status & ATA_SR_DRQ) {
  101172:	a8 08                	test   $0x8,%al
  101174:	74 f2                	je     101168 <ata_init+0x68>
  101176:	b9 00 01 00 00       	mov    $0x100,%ecx
}

static inline uint16_t inw(uint16_t port) {
    uint16_t ret;
    asm volatile("inw %1, %0" : "=a"(ret) : "Nd"(port));
  10117b:	ba f0 01 00 00       	mov    $0x1f0,%edx
  101180:	66 ed                	in     (%dx),%ax
  101182:	66 ed                	in     (%dx),%ax
    for (int i = 0; i < 256; i++) {
  101184:	83 e9 02             	sub    $0x2,%ecx
  101187:	75 f7                	jne    101180 <ata_init+0x80>
    ata_initialized = true;
  101189:	c7 05 60 69 10 00 01 	movl   $0x1,0x106960
  101190:	00 00 00 
    return true;
  101193:	e9 76 ff ff ff       	jmp    10110e <ata_init+0xe>
        vga_writestr("ATA Error: Drive busy timeout\n");
  101198:	68 d8 48 10 00       	push   $0x1048d8
  10119d:	e8 4e 1c 00 00       	call   102df0 <vga_writestr>
        return false;
  1011a2:	58                   	pop    %eax
}
  1011a3:	89 d8                	mov    %ebx,%eax
  1011a5:	8b 5d fc             	mov    -0x4(%ebp),%ebx
  1011a8:	c9                   	leave
  1011a9:	c3                   	ret
        vga_writestr("ATA Error: Drive not ready\n");
  1011aa:	68 0c 44 10 00       	push   $0x10440c
  1011af:	e8 3c 1c 00 00       	call   102df0 <vga_writestr>
        return false;
  1011b4:	5a                   	pop    %edx
  1011b5:	e9 59 ff ff ff       	jmp    101113 <ata_init+0x13>
  1011ba:	8d b6 00 00 00 00    	lea    0x0(%esi),%esi

001011c0 <ata_read_sectors>:

bool ata_read_sectors(uint32_t lba, uint8_t sector_count, void* buffer) {
  1011c0:	55                   	push   %ebp
  1011c1:	89 e5                	mov    %esp,%ebp
  1011c3:	57                   	push   %edi
  1011c4:	56                   	push   %esi
  1011c5:	53                   	push   %ebx
  1011c6:	83 ec 08             	sub    $0x8,%esp
    if (!ata_initialized) {
  1011c9:	a1 60 69 10 00       	mov    0x106960,%eax
bool ata_read_sectors(uint32_t lba, uint8_t sector_count, void* buffer) {
  1011ce:	8b 4d 0c             	mov    0xc(%ebp),%ecx
    if (!ata_initialized) {
  1011d1:	85 c0                	test   %eax,%eax
  1011d3:	0f 84 19 01 00 00    	je     1012f2 <ata_read_sectors+0x132>
        vga_writestr("ATA Error: Drive not initialized\n");
        return false;
    }

    if (!buffer) {
  1011d9:	8b 45 10             	mov    0x10(%ebp),%eax
  1011dc:	89 cf                	mov    %ecx,%edi
  1011de:	be 9f 86 01 00       	mov    $0x1869f,%esi
    asm volatile("inb %1, %0" : "=a"(ret) : "Nd"(port));
  1011e3:	bb f7 01 00 00       	mov    $0x1f7,%ebx
  1011e8:	85 c0                	test   %eax,%eax
  1011ea:	75 19                	jne    101205 <ata_read_sectors+0x45>
  1011ec:	e9 1f 01 00 00       	jmp    101310 <ata_read_sectors+0x150>
  1011f1:	8d b4 26 00 00 00 00 	lea    0x0(%esi,%eiz,1),%esi
  1011f8:	ec                   	in     (%dx),%al
  1011f9:	ec                   	in     (%dx),%al
  1011fa:	ec                   	in     (%dx),%al
  1011fb:	ec                   	in     (%dx),%al
    while (--timeout) {
  1011fc:	83 ee 01             	sub    $0x1,%esi
  1011ff:	0f 84 fc 00 00 00    	je     101301 <ata_read_sectors+0x141>
  101205:	89 da                	mov    %ebx,%edx
  101207:	ec                   	in     (%dx),%al
        if (!(status & ATA_SR_BSY)) {
  101208:	84 c0                	test   %al,%al
  10120a:	78 ec                	js     1011f8 <ata_read_sectors+0x38>
        vga_writestr("ATA Error: Drive busy before read\n");
        return false;
    }

    // Send drive select and LBA
    outb(ATA_DRIVEHEAD, 0xE0 | ((lba >> 24) & 0x0F));
  10120c:	8b 45 08             	mov    0x8(%ebp),%eax
    asm volatile("outb %0, %1" : : "a"(value), "Nd"(port));
  10120f:	ba f6 01 00 00       	mov    $0x1f6,%edx
  101214:	c1 e8 18             	shr    $0x18,%eax
  101217:	83 e0 0f             	and    $0xf,%eax
  10121a:	83 c8 e0             	or     $0xffffffe0,%eax
  10121d:	ee                   	out    %al,(%dx)
  10121e:	ba f2 01 00 00       	mov    $0x1f2,%edx
  101223:	89 f8                	mov    %edi,%eax
  101225:	ee                   	out    %al,(%dx)
  101226:	ba f3 01 00 00       	mov    $0x1f3,%edx
  10122b:	0f b6 45 08          	movzbl 0x8(%ebp),%eax
  10122f:	ee                   	out    %al,(%dx)
    outb(ATA_SECCOUNT0, sector_count);
    outb(ATA_SECTOR, (uint8_t)lba);
    outb(ATA_LCYL, (uint8_t)(lba >> 8));
  101230:	8b 45 08             	mov    0x8(%ebp),%eax
  101233:	ba f4 01 00 00       	mov    $0x1f4,%edx
  101238:	c1 e8 08             	shr    $0x8,%eax
  10123b:	ee                   	out    %al,(%dx)
    outb(ATA_HCYL, (uint8_t)(lba >> 16));
  10123c:	8b 45 08             	mov    0x8(%ebp),%eax
  10123f:	ba f5 01 00 00       	mov    $0x1f5,%edx
  101244:	c1 e8 10             	shr    $0x10,%eax
  101247:	ee                   	out    %al,(%dx)
  101248:	b8 20 00 00 00       	mov    $0x20,%eax
  10124d:	89 da                	mov    %ebx,%edx
  10124f:	ee                   	out    %al,(%dx)

    // Send read command
    outb(ATA_COMMAND, ATA_CMD_READ_PIO);

    uint16_t* buf = (uint16_t*)buffer;
    for (int s = 0; s < sector_count; s++) {
  101250:	0f b6 c1             	movzbl %cl,%eax
  101253:	c7 45 f0 00 00 00 00 	movl   $0x0,-0x10(%ebp)
    asm volatile("inb %1, %0" : "=a"(ret) : "Nd"(port));
  10125a:	bf f7 01 00 00       	mov    $0x1f7,%edi
    asm volatile("inw %1, %0" : "=a"(ret) : "Nd"(port));
  10125f:	be f0 01 00 00       	mov    $0x1f0,%esi
  101264:	89 45 ec             	mov    %eax,-0x14(%ebp)
  101267:	8b 45 10             	mov    0x10(%ebp),%eax
  10126a:	8d 98 00 02 00 00    	lea    0x200(%eax),%ebx
  101270:	84 c9                	test   %cl,%cl
  101272:	74 5c                	je     1012d0 <ata_read_sectors+0x110>
  101274:	2e 8d b4 26 00 00 00 	lea    %cs:0x0(%esi,%eiz,1),%esi
  10127b:	00 
  10127c:	8d 74 26 00          	lea    0x0(%esi,%eiz,1),%esi
    while (--timeout) {
  101280:	b9 9f 86 01 00       	mov    $0x1869f,%ecx
  101285:	eb 12                	jmp    101299 <ata_read_sectors+0xd9>
  101287:	2e 8d b4 26 00 00 00 	lea    %cs:0x0(%esi,%eiz,1),%esi
  10128e:	00 
  10128f:	90                   	nop
    asm volatile("inb %1, %0" : "=a"(ret) : "Nd"(port));
  101290:	ec                   	in     (%dx),%al
  101291:	ec                   	in     (%dx),%al
  101292:	ec                   	in     (%dx),%al
  101293:	ec                   	in     (%dx),%al
  101294:	83 e9 01             	sub    $0x1,%ecx
  101297:	74 44                	je     1012dd <ata_read_sectors+0x11d>
  101299:	89 fa                	mov    %edi,%edx
  10129b:	ec                   	in     (%dx),%al
        if (status & ATA_SR_DRQ) {
  10129c:	a8 08                	test   $0x8,%al
  10129e:	74 f0                	je     101290 <ata_read_sectors+0xd0>
  1012a0:	8d 8b 00 fe ff ff    	lea    -0x200(%ebx),%ecx
  1012a6:	2e 8d b4 26 00 00 00 	lea    %cs:0x0(%esi,%eiz,1),%esi
  1012ad:	00 
  1012ae:	66 90                	xchg   %ax,%ax
    asm volatile("inw %1, %0" : "=a"(ret) : "Nd"(port));
  1012b0:	89 f2                	mov    %esi,%edx
  1012b2:	66 ed                	in     (%dx),%ax
            return false;
        }

        // Read sector
        for (int i = 0; i < 256; i++) {
            buf[i + (s * 256)] = inw(ATA_DATA);
  1012b4:	66 89 01             	mov    %ax,(%ecx)
        for (int i = 0; i < 256; i++) {
  1012b7:	83 c1 02             	add    $0x2,%ecx
  1012ba:	39 d9                	cmp    %ebx,%ecx
  1012bc:	75 f2                	jne    1012b0 <ata_read_sectors+0xf0>
    for (int s = 0; s < sector_count; s++) {
  1012be:	83 45 f0 01          	addl   $0x1,-0x10(%ebp)
  1012c2:	81 c3 00 02 00 00    	add    $0x200,%ebx
  1012c8:	8b 45 f0             	mov    -0x10(%ebp),%eax
  1012cb:	39 45 ec             	cmp    %eax,-0x14(%ebp)
  1012ce:	75 b0                	jne    101280 <ata_read_sectors+0xc0>
        }
    }

    return true;
}
  1012d0:	8d 65 f4             	lea    -0xc(%ebp),%esp
    return true;
  1012d3:	b8 01 00 00 00       	mov    $0x1,%eax
}
  1012d8:	5b                   	pop    %ebx
  1012d9:	5e                   	pop    %esi
  1012da:	5f                   	pop    %edi
  1012db:	5d                   	pop    %ebp
  1012dc:	c3                   	ret
            vga_writestr("ATA Error: Data not ready\n");
  1012dd:	68 43 44 10 00       	push   $0x104443
  1012e2:	e8 09 1b 00 00       	call   102df0 <vga_writestr>
            return false;
  1012e7:	5a                   	pop    %edx
        return false;
  1012e8:	31 c0                	xor    %eax,%eax
}
  1012ea:	8d 65 f4             	lea    -0xc(%ebp),%esp
  1012ed:	5b                   	pop    %ebx
  1012ee:	5e                   	pop    %esi
  1012ef:	5f                   	pop    %edi
  1012f0:	5d                   	pop    %ebp
  1012f1:	c3                   	ret
        vga_writestr("ATA Error: Drive not initialized\n");
  1012f2:	68 f8 48 10 00       	push   $0x1048f8
  1012f7:	e8 f4 1a 00 00       	call   102df0 <vga_writestr>
        return false;
  1012fc:	58                   	pop    %eax
  1012fd:	31 c0                	xor    %eax,%eax
  1012ff:	eb e9                	jmp    1012ea <ata_read_sectors+0x12a>
        vga_writestr("ATA Error: Drive busy before read\n");
  101301:	68 1c 49 10 00       	push   $0x10491c
  101306:	e8 e5 1a 00 00       	call   102df0 <vga_writestr>
        return false;
  10130b:	58                   	pop    %eax
        return false;
  10130c:	31 c0                	xor    %eax,%eax
  10130e:	eb da                	jmp    1012ea <ata_read_sectors+0x12a>
        vga_writestr("ATA Error: Invalid buffer\n");
  101310:	68 28 44 10 00       	push   $0x104428
  101315:	e8 d6 1a 00 00       	call   102df0 <vga_writestr>
        return false;
  10131a:	59                   	pop    %ecx
        return false;
  10131b:	31 c0                	xor    %eax,%eax
  10131d:	eb cb                	jmp    1012ea <ata_read_sectors+0x12a>
  10131f:	90                   	nop

00101320 <ata_write_sectors>:

bool ata_write_sectors(uint32_t lba, uint8_t sector_count, const void* buffer) {
  101320:	55                   	push   %ebp
  101321:	89 e5                	mov    %esp,%ebp
  101323:	57                   	push   %edi
  101324:	56                   	push   %esi
  101325:	53                   	push   %ebx
  101326:	83 ec 04             	sub    $0x4,%esp
    if (!ata_initialized) {
  101329:	a1 60 69 10 00       	mov    0x106960,%eax
bool ata_write_sectors(uint32_t lba, uint8_t sector_count, const void* buffer) {
  10132e:	8b 75 0c             	mov    0xc(%ebp),%esi
    if (!ata_initialized) {
  101331:	85 c0                	test   %eax,%eax
  101333:	0f 84 12 01 00 00    	je     10144b <ata_write_sectors+0x12b>
        vga_writestr("ATA Error: Drive not initialized\n");
        return false;
    }

    if (!buffer) {
  101339:	8b 45 10             	mov    0x10(%ebp),%eax
  10133c:	89 f7                	mov    %esi,%edi
  10133e:	bb 9f 86 01 00       	mov    $0x1869f,%ebx
    asm volatile("inb %1, %0" : "=a"(ret) : "Nd"(port));
  101343:	b9 f7 01 00 00       	mov    $0x1f7,%ecx
  101348:	85 c0                	test   %eax,%eax
  10134a:	75 19                	jne    101365 <ata_write_sectors+0x45>
  10134c:	e9 29 01 00 00       	jmp    10147a <ata_write_sectors+0x15a>
  101351:	8d b4 26 00 00 00 00 	lea    0x0(%esi,%eiz,1),%esi
  101358:	ec                   	in     (%dx),%al
  101359:	ec                   	in     (%dx),%al
  10135a:	ec                   	in     (%dx),%al
  10135b:	ec                   	in     (%dx),%al
    while (--timeout) {
  10135c:	83 eb 01             	sub    $0x1,%ebx
  10135f:	0f 84 22 01 00 00    	je     101487 <ata_write_sectors+0x167>
  101365:	89 ca                	mov    %ecx,%edx
  101367:	ec                   	in     (%dx),%al
        if (!(status & ATA_SR_BSY)) {
  101368:	84 c0                	test   %al,%al
  10136a:	78 ec                	js     101358 <ata_write_sectors+0x38>
        vga_writestr("ATA Error: Drive busy before write\n");
        return false;
    }

    // Send drive select and LBA
    outb(ATA_DRIVEHEAD, 0xE0 | ((lba >> 24) & 0x0F));
  10136c:	8b 45 08             	mov    0x8(%ebp),%eax
    asm volatile("outb %0, %1" : : "a"(value), "Nd"(port));
  10136f:	ba f6 01 00 00       	mov    $0x1f6,%edx
  101374:	c1 e8 18             	shr    $0x18,%eax
  101377:	83 e0 0f             	and    $0xf,%eax
  10137a:	83 c8 e0             	or     $0xffffffe0,%eax
  10137d:	ee                   	out    %al,(%dx)
  10137e:	ba f2 01 00 00       	mov    $0x1f2,%edx
  101383:	89 f8                	mov    %edi,%eax
  101385:	ee                   	out    %al,(%dx)
  101386:	ba f3 01 00 00       	mov    $0x1f3,%edx
  10138b:	0f b6 45 08          	movzbl 0x8(%ebp),%eax
  10138f:	ee                   	out    %al,(%dx)
    outb(ATA_SECCOUNT0, sector_count);
    outb(ATA_SECTOR, (uint8_t)lba);
    outb(ATA_LCYL, (uint8_t)(lba >> 8));
  101390:	8b 45 08             	mov    0x8(%ebp),%eax
  101393:	ba f4 01 00 00       	mov    $0x1f4,%edx
  101398:	c1 e8 08             	shr    $0x8,%eax
  10139b:	ee                   	out    %al,(%dx)
    outb(ATA_HCYL, (uint8_t)(lba >> 16));
  10139c:	8b 45 08             	mov    0x8(%ebp),%eax
  10139f:	ba f5 01 00 00       	mov    $0x1f5,%edx
  1013a4:	c1 e8 10             	shr    $0x10,%eax
  1013a7:	ee                   	out    %al,(%dx)
  1013a8:	b8 30 00 00 00       	mov    $0x30,%eax
  1013ad:	89 ca                	mov    %ecx,%edx
  1013af:	ee                   	out    %al,(%dx)

    // Send write command
    outb(ATA_COMMAND, ATA_CMD_WRITE_PIO);

    const uint16_t* buf = (const uint16_t*)buffer;
    for (int s = 0; s < sector_count; s++) {
  1013b0:	89 f0                	mov    %esi,%eax
  1013b2:	31 ff                	xor    %edi,%edi
    asm volatile("inb %1, %0" : "=a"(ret) : "Nd"(port));
  1013b4:	b9 f7 01 00 00       	mov    $0x1f7,%ecx
  1013b9:	0f b6 c0             	movzbl %al,%eax
  1013bc:	89 45 f0             	mov    %eax,-0x10(%ebp)
  1013bf:	8b 45 10             	mov    0x10(%ebp),%eax
  1013c2:	8d 98 00 02 00 00    	lea    0x200(%eax),%ebx
  1013c8:	89 f0                	mov    %esi,%eax
  1013ca:	84 c0                	test   %al,%al
  1013cc:	74 70                	je     10143e <ata_write_sectors+0x11e>
  1013ce:	66 90                	xchg   %ax,%ax
    while (--timeout) {
  1013d0:	be 9f 86 01 00       	mov    $0x1869f,%esi
  1013d5:	eb 12                	jmp    1013e9 <ata_write_sectors+0xc9>
  1013d7:	2e 8d b4 26 00 00 00 	lea    %cs:0x0(%esi,%eiz,1),%esi
  1013de:	00 
  1013df:	90                   	nop
  1013e0:	ec                   	in     (%dx),%al
  1013e1:	ec                   	in     (%dx),%al
  1013e2:	ec                   	in     (%dx),%al
  1013e3:	ec                   	in     (%dx),%al
  1013e4:	83 ee 01             	sub    $0x1,%esi
  1013e7:	74 77                	je     101460 <ata_write_sectors+0x140>
  1013e9:	89 ca                	mov    %ecx,%edx
  1013eb:	ec                   	in     (%dx),%al
        if (status & ATA_SR_DRQ) {
  1013ec:	a8 08                	test   $0x8,%al
  1013ee:	74 f0                	je     1013e0 <ata_write_sectors+0xc0>
  1013f0:	8d b3 00 fe ff ff    	lea    -0x200(%ebx),%esi
  1013f6:	2e 8d b4 26 00 00 00 	lea    %cs:0x0(%esi,%eiz,1),%esi
  1013fd:	00 
  1013fe:	66 90                	xchg   %ax,%ax
    return ret;
}

static inline void outw(uint16_t port, uint16_t value) {
    asm volatile("outw %0, %1" : : "a"(value), "Nd"(port));
  101400:	0f b7 06             	movzwl (%esi),%eax
  101403:	ba f0 01 00 00       	mov    $0x1f0,%edx
  101408:	66 ef                	out    %ax,(%dx)
            vga_writestr("ATA Error: Drive not ready for write\n");
            return false;
        }

        // Write sector
        for (int i = 0; i < 256; i++) {
  10140a:	83 c6 02             	add    $0x2,%esi
  10140d:	39 f3                	cmp    %esi,%ebx
  10140f:	75 ef                	jne    101400 <ata_write_sectors+0xe0>
    asm volatile("outb %0, %1" : : "a"(value), "Nd"(port));
  101411:	b8 e7 ff ff ff       	mov    $0xffffffe7,%eax
  101416:	89 ca                	mov    %ecx,%edx
  101418:	ee                   	out    %al,(%dx)
  101419:	be 9f 86 01 00       	mov    $0x1869f,%esi
  10141e:	eb 09                	jmp    101429 <ata_write_sectors+0x109>
    asm volatile("inb %1, %0" : "=a"(ret) : "Nd"(port));
  101420:	ec                   	in     (%dx),%al
  101421:	ec                   	in     (%dx),%al
  101422:	ec                   	in     (%dx),%al
  101423:	ec                   	in     (%dx),%al
    while (--timeout) {
  101424:	83 ee 01             	sub    $0x1,%esi
  101427:	74 44                	je     10146d <ata_write_sectors+0x14d>
  101429:	89 ca                	mov    %ecx,%edx
  10142b:	ec                   	in     (%dx),%al
        if (!(status & ATA_SR_BSY)) {
  10142c:	84 c0                	test   %al,%al
  10142e:	78 f0                	js     101420 <ata_write_sectors+0x100>
    for (int s = 0; s < sector_count; s++) {
  101430:	83 c7 01             	add    $0x1,%edi
  101433:	81 c3 00 02 00 00    	add    $0x200,%ebx
  101439:	39 7d f0             	cmp    %edi,-0x10(%ebp)
  10143c:	75 92                	jne    1013d0 <ata_write_sectors+0xb0>
            return false;
        }
    }

    return true;
  10143e:	8d 65 f4             	lea    -0xc(%ebp),%esp
    return true;
  101441:	b8 01 00 00 00       	mov    $0x1,%eax
  101446:	5b                   	pop    %ebx
  101447:	5e                   	pop    %esi
  101448:	5f                   	pop    %edi
  101449:	5d                   	pop    %ebp
  10144a:	c3                   	ret
        vga_writestr("ATA Error: Drive not initialized\n");
  10144b:	68 f8 48 10 00       	push   $0x1048f8
  101450:	e8 9b 19 00 00       	call   102df0 <vga_writestr>
        return false;
  101455:	58                   	pop    %eax
  101456:	8d 65 f4             	lea    -0xc(%ebp),%esp
        return false;
  101459:	31 c0                	xor    %eax,%eax
  10145b:	5b                   	pop    %ebx
  10145c:	5e                   	pop    %esi
  10145d:	5f                   	pop    %edi
  10145e:	5d                   	pop    %ebp
  10145f:	c3                   	ret
            vga_writestr("ATA Error: Drive not ready for write\n");
  101460:	68 40 49 10 00       	push   $0x104940
  101465:	e8 86 19 00 00       	call   102df0 <vga_writestr>
            return false;
  10146a:	59                   	pop    %ecx
  10146b:	eb e9                	jmp    101456 <ata_write_sectors+0x136>
            vga_writestr("ATA Error: Cache flush failed\n");
  10146d:	68 68 49 10 00       	push   $0x104968
  101472:	e8 79 19 00 00       	call   102df0 <vga_writestr>
            return false;
  101477:	5a                   	pop    %edx
  101478:	eb dc                	jmp    101456 <ata_write_sectors+0x136>
        vga_writestr("ATA Error: Invalid buffer\n");
  10147a:	68 28 44 10 00       	push   $0x104428
  10147f:	e8 6c 19 00 00       	call   102df0 <vga_writestr>
        return false;
  101484:	5b                   	pop    %ebx
  101485:	eb cf                	jmp    101456 <ata_write_sectors+0x136>
        vga_writestr("ATA Error: Drive busy before write\n");
  101487:	68 88 49 10 00       	push   $0x104988
  10148c:	e8 5f 19 00 00       	call   102df0 <vga_writestr>
        return false;
  101491:	58                   	pop    %eax
  101492:	eb c2                	jmp    101456 <ata_write_sectors+0x136>
  101494:	66 90                	xchg   %ax,%ax
  101496:	66 90                	xchg   %ax,%ax
  101498:	66 90                	xchg   %ax,%ax
  10149a:	66 90                	xchg   %ax,%ax
  10149c:	66 90                	xchg   %ax,%ax
  10149e:	66 90                	xchg   %ax,%ax
  1014a0:	66 90                	xchg   %ax,%ax
  1014a2:	66 90                	xchg   %ax,%ax
  1014a4:	66 90                	xchg   %ax,%ax
  1014a6:	66 90                	xchg   %ax,%ax
  1014a8:	66 90                	xchg   %ax,%ax
  1014aa:	66 90                	xchg   %ax,%ax
  1014ac:	66 90                	xchg   %ax,%ax
  1014ae:	66 90                	xchg   %ax,%ax
  1014b0:	66 90                	xchg   %ax,%ax
  1014b2:	66 90                	xchg   %ax,%ax
  1014b4:	66 90                	xchg   %ax,%ax
  1014b6:	66 90                	xchg   %ax,%ax
  1014b8:	66 90                	xchg   %ax,%ax
  1014ba:	66 90                	xchg   %ax,%ax
  1014bc:	66 90                	xchg   %ax,%ax
  1014be:	66 90                	xchg   %ax,%ax

001014c0 <update_path>:
        if (c1 != c2) return false;
    }
    return true;
}

static void update_path(void) {
  1014c0:	55                   	push   %ebp
  1014c1:	89 e5                	mov    %esp,%ebp
  1014c3:	57                   	push   %edi
  1014c4:	56                   	push   %esi
  1014c5:	53                   	push   %ebx
    // Start with root
    current_directory.path[0] = '/';
  1014c6:	bb 2f 00 00 00       	mov    $0x2f,%ebx
static void update_path(void) {
  1014cb:	83 ec 0c             	sub    $0xc,%esp
    current_directory.path[1] = '\0';

    // Build path from parent directories
    for (int i = 0; i < directory_depth; i++) {
  1014ce:	8b 35 80 69 10 00    	mov    0x106980,%esi
    current_directory.path[0] = '/';
  1014d4:	66 89 1d b0 7a 10 00 	mov    %bx,0x107ab0
    for (int i = 0; i < directory_depth; i++) {
  1014db:	85 f6                	test   %esi,%esi
  1014dd:	7e 7c                	jle    10155b <update_path+0x9b>
  1014df:	31 f6                	xor    %esi,%esi
  1014e1:	31 db                	xor    %ebx,%ebx
  1014e3:	8d 7d e8             	lea    -0x18(%ebp),%edi
  1014e6:	2e 8d b4 26 00 00 00 	lea    %cs:0x0(%esi,%eiz,1),%esi
  1014ed:	00 
  1014ee:	66 90                	xchg   %ax,%ax
        // Don't add another slash if we're already at root
        if (strcmp(current_directory.path, "/") != 0) {
  1014f0:	68 5e 44 10 00       	push   $0x10445e
  1014f5:	68 b0 7a 10 00       	push   $0x107ab0
  1014fa:	e8 11 1c 00 00       	call   103110 <strcmp>
  1014ff:	5a                   	pop    %edx
  101500:	59                   	pop    %ecx
  101501:	85 c0                	test   %eax,%eax
  101503:	75 7b                	jne    101580 <update_path+0xc0>
    for (int i = 0; i < directory_depth; i++) {
  101505:	31 c0                	xor    %eax,%eax
  101507:	eb 17                	jmp    101520 <update_path+0x60>
  101509:	2e 8d b4 26 00 00 00 	lea    %cs:0x0(%esi,%eiz,1),%esi
  101510:	00 
  101511:	2e 8d b4 26 00 00 00 	lea    %cs:0x0(%esi,%eiz,1),%esi
  101518:	00 
  101519:	8d b4 26 00 00 00 00 	lea    0x0(%esi,%eiz,1),%esi
        }
        
        // Add current directory name, trimming any spaces
        char trimmed_name[12];
        int j;
        for (j = 0; j < 11 && parent_directories[i].name[j] != ' '; j++) {
  101520:	0f b6 94 06 a4 69 10 	movzbl 0x1069a4(%esi,%eax,1),%edx
  101527:	00 
  101528:	80 fa 20             	cmp    $0x20,%dl
  10152b:	74 0b                	je     101538 <update_path+0x78>
            trimmed_name[j] = parent_directories[i].name[j];
  10152d:	88 14 07             	mov    %dl,(%edi,%eax,1)
        for (j = 0; j < 11 && parent_directories[i].name[j] != ' '; j++) {
  101530:	83 c0 01             	add    $0x1,%eax
  101533:	83 f8 0b             	cmp    $0xb,%eax
  101536:	75 e8                	jne    101520 <update_path+0x60>
        }
        trimmed_name[j] = '\0';
  101538:	c6 44 05 e8 00       	movb   $0x0,-0x18(%ebp,%eax,1)
    for (int i = 0; i < directory_depth; i++) {
  10153d:	83 c3 01             	add    $0x1,%ebx
  101540:	81 c6 10 01 00 00    	add    $0x110,%esi
        strcat(current_directory.path, trimmed_name);
  101546:	57                   	push   %edi
  101547:	68 b0 7a 10 00       	push   $0x107ab0
  10154c:	e8 4f 1c 00 00       	call   1031a0 <strcat>
    for (int i = 0; i < directory_depth; i++) {
  101551:	58                   	pop    %eax
  101552:	5a                   	pop    %edx
  101553:	39 1d 80 69 10 00    	cmp    %ebx,0x106980
  101559:	7f 95                	jg     1014f0 <update_path+0x30>
    }

    // Add current directory to path (if not root)
    if (strcmp(current_directory.name, "/") != 0) {
  10155b:	68 5e 44 10 00       	push   $0x10445e
  101560:	68 a4 7a 10 00       	push   $0x107aa4
  101565:	e8 a6 1b 00 00       	call   103110 <strcmp>
  10156a:	5a                   	pop    %edx
  10156b:	59                   	pop    %ecx
  10156c:	85 c0                	test   %eax,%eax
  10156e:	75 26                	jne    101596 <update_path+0xd6>
            trimmed_name[j] = current_directory.name[j];
        }
        trimmed_name[j] = '\0';
        strcat(current_directory.path, trimmed_name);
    }
}
  101570:	8d 65 f4             	lea    -0xc(%ebp),%esp
  101573:	5b                   	pop    %ebx
  101574:	5e                   	pop    %esi
  101575:	5f                   	pop    %edi
  101576:	5d                   	pop    %ebp
  101577:	c3                   	ret
  101578:	2e 8d b4 26 00 00 00 	lea    %cs:0x0(%esi,%eiz,1),%esi
  10157f:	00 
            strcat(current_directory.path, "/");
  101580:	68 5e 44 10 00       	push   $0x10445e
  101585:	68 b0 7a 10 00       	push   $0x107ab0
  10158a:	e8 11 1c 00 00       	call   1031a0 <strcat>
  10158f:	59                   	pop    %ecx
  101590:	58                   	pop    %eax
  101591:	e9 6f ff ff ff       	jmp    101505 <update_path+0x45>
        if (strcmp(current_directory.path, "/") != 0) {
  101596:	68 5e 44 10 00       	push   $0x10445e
  10159b:	68 b0 7a 10 00       	push   $0x107ab0
  1015a0:	e8 6b 1b 00 00       	call   103110 <strcmp>
  1015a5:	5e                   	pop    %esi
  1015a6:	5f                   	pop    %edi
  1015a7:	85 c0                	test   %eax,%eax
  1015a9:	75 46                	jne    1015f1 <update_path+0x131>
    for (int i = 0; i < directory_depth; i++) {
  1015ab:	31 c0                	xor    %eax,%eax
  1015ad:	8d 7d e8             	lea    -0x18(%ebp),%edi
  1015b0:	2e 8d b4 26 00 00 00 	lea    %cs:0x0(%esi,%eiz,1),%esi
  1015b7:	00 
  1015b8:	2e 8d b4 26 00 00 00 	lea    %cs:0x0(%esi,%eiz,1),%esi
  1015bf:	00 
        for (j = 0; j < 11 && current_directory.name[j] != ' '; j++) {
  1015c0:	0f b6 90 a4 7a 10 00 	movzbl 0x107aa4(%eax),%edx
  1015c7:	80 fa 20             	cmp    $0x20,%dl
  1015ca:	74 0b                	je     1015d7 <update_path+0x117>
            trimmed_name[j] = current_directory.name[j];
  1015cc:	88 14 07             	mov    %dl,(%edi,%eax,1)
        for (j = 0; j < 11 && current_directory.name[j] != ' '; j++) {
  1015cf:	83 c0 01             	add    $0x1,%eax
  1015d2:	83 f8 0b             	cmp    $0xb,%eax
  1015d5:	75 e9                	jne    1015c0 <update_path+0x100>
        trimmed_name[j] = '\0';
  1015d7:	c6 44 05 e8 00       	movb   $0x0,-0x18(%ebp,%eax,1)
        strcat(current_directory.path, trimmed_name);
  1015dc:	57                   	push   %edi
  1015dd:	68 b0 7a 10 00       	push   $0x107ab0
  1015e2:	e8 b9 1b 00 00       	call   1031a0 <strcat>
  1015e7:	58                   	pop    %eax
  1015e8:	5a                   	pop    %edx
}
  1015e9:	8d 65 f4             	lea    -0xc(%ebp),%esp
  1015ec:	5b                   	pop    %ebx
  1015ed:	5e                   	pop    %esi
  1015ee:	5f                   	pop    %edi
  1015ef:	5d                   	pop    %ebp
  1015f0:	c3                   	ret
            strcat(current_directory.path, "/");
  1015f1:	68 5e 44 10 00       	push   $0x10445e
  1015f6:	68 b0 7a 10 00       	push   $0x107ab0
  1015fb:	e8 a0 1b 00 00       	call   1031a0 <strcat>
  101600:	59                   	pop    %ecx
  101601:	5b                   	pop    %ebx
  101602:	eb a7                	jmp    1015ab <update_path+0xeb>
  101604:	2e 8d b4 26 00 00 00 	lea    %cs:0x0(%esi,%eiz,1),%esi
  10160b:	00 
  10160c:	8d 74 26 00          	lea    0x0(%esi,%eiz,1),%esi

00101610 <fat32_init>:

bool fat32_init(void) {
  101610:	55                   	push   %ebp
  101611:	89 e5                	mov    %esp,%ebp
    if (!ata_read_sectors(0, 1, &boot_sector)) {
  101613:	68 c0 7b 10 00       	push   $0x107bc0
  101618:	6a 01                	push   $0x1
  10161a:	6a 00                	push   $0x0
  10161c:	e8 9f fb ff ff       	call   1011c0 <ata_read_sectors>
  101621:	83 c4 0c             	add    $0xc,%esp
  101624:	85 c0                	test   %eax,%eax
  101626:	0f 84 9c 00 00 00    	je     1016c8 <fat32_init+0xb8>
        vga_writestr("Error: Failed to initialize filesystem\n");
        return false;
    }

    if (boot_sector.bytes_per_sector != 512) {
  10162c:	66 81 3d cb 7b 10 00 	cmpw   $0x200,0x107bcb
  101633:	00 02 
  101635:	74 19                	je     101650 <fat32_init+0x40>
        vga_writestr("Error: Invalid filesystem\n");
  101637:	68 60 44 10 00       	push   $0x104460
  10163c:	e8 af 17 00 00       	call   102df0 <vga_writestr>
        return false;
  101641:	58                   	pop    %eax
        return false;
  101642:	31 c0                	xor    %eax,%eax
    strcpy(current_directory.path, "/");
    directory_depth = 0;

    is_initialized = true;
    return true;
}
  101644:	c9                   	leave
  101645:	c3                   	ret
  101646:	2e 8d b4 26 00 00 00 	lea    %cs:0x0(%esi,%eiz,1),%esi
  10164d:	00 
  10164e:	66 90                	xchg   %ax,%ax
    sectors_per_cluster = boot_sector.sectors_per_cluster;
  101650:	0f b6 05 cd 7b 10 00 	movzbl 0x107bcd,%eax
    fat_begin_lba = boot_sector.reserved_sectors;
  101657:	0f b7 15 ce 7b 10 00 	movzwl 0x107bce,%edx
    strcpy(current_directory.name, "/");
  10165e:	68 5e 44 10 00       	push   $0x10445e
  101663:	68 a4 7a 10 00       	push   $0x107aa4
    sectors_per_cluster = boot_sector.sectors_per_cluster;
  101668:	a3 b0 7b 10 00       	mov    %eax,0x107bb0
    cluster_begin_lba = fat_begin_lba + (boot_sector.num_fats * boot_sector.fat_size_32);
  10166d:	0f b6 05 d0 7b 10 00 	movzbl 0x107bd0,%eax
  101674:	0f af 05 e4 7b 10 00 	imul   0x107be4,%eax
    fat_begin_lba = boot_sector.reserved_sectors;
  10167b:	89 15 b8 7b 10 00    	mov    %edx,0x107bb8
    cluster_begin_lba = fat_begin_lba + (boot_sector.num_fats * boot_sector.fat_size_32);
  101681:	01 d0                	add    %edx,%eax
  101683:	a3 b4 7b 10 00       	mov    %eax,0x107bb4
    current_directory.cluster = boot_sector.root_cluster;
  101688:	a1 ec 7b 10 00       	mov    0x107bec,%eax
  10168d:	a3 a0 7a 10 00       	mov    %eax,0x107aa0
    strcpy(current_directory.name, "/");
  101692:	e8 d9 1a 00 00       	call   103170 <strcpy>
    strcpy(current_directory.path, "/");
  101697:	68 5e 44 10 00       	push   $0x10445e
  10169c:	68 b0 7a 10 00       	push   $0x107ab0
  1016a1:	e8 ca 1a 00 00       	call   103170 <strcpy>
    return true;
  1016a6:	83 c4 10             	add    $0x10,%esp
  1016a9:	b8 01 00 00 00       	mov    $0x1,%eax
    directory_depth = 0;
  1016ae:	c7 05 80 69 10 00 00 	movl   $0x0,0x106980
  1016b5:	00 00 00 
    is_initialized = true;
  1016b8:	c7 05 1c 7c 10 00 01 	movl   $0x1,0x107c1c
  1016bf:	00 00 00 
}
  1016c2:	c9                   	leave
  1016c3:	c3                   	ret
  1016c4:	8d 74 26 00          	lea    0x0(%esi,%eiz,1),%esi
        vga_writestr("Error: Failed to initialize filesystem\n");
  1016c8:	68 ac 49 10 00       	push   $0x1049ac
  1016cd:	e8 1e 17 00 00       	call   102df0 <vga_writestr>
        return false;
  1016d2:	5a                   	pop    %edx
  1016d3:	31 c0                	xor    %eax,%eax
  1016d5:	e9 6a ff ff ff       	jmp    101644 <fat32_init+0x34>
  1016da:	8d b6 00 00 00 00    	lea    0x0(%esi),%esi

001016e0 <fat32_get_current_directory>:


uint32_t fat32_get_current_directory(void) {
    return current_directory.cluster;
}
  1016e0:	a1 a0 7a 10 00       	mov    0x107aa0,%eax
  1016e5:	c3                   	ret
  1016e6:	2e 8d b4 26 00 00 00 	lea    %cs:0x0(%esi,%eiz,1),%esi
  1016ed:	00 
  1016ee:	66 90                	xchg   %ax,%ax

001016f0 <fat32_get_current_path>:

const char* fat32_get_current_path(void) {
    return current_directory.path;
}
  1016f0:	b8 b0 7a 10 00       	mov    $0x107ab0,%eax
  1016f5:	c3                   	ret
  1016f6:	2e 8d b4 26 00 00 00 	lea    %cs:0x0(%esi,%eiz,1),%esi
  1016fd:	00 
  1016fe:	66 90                	xchg   %ax,%ax

00101700 <fat32_get_next_cluster>:

static uint32_t cluster_to_lba(uint32_t cluster) {
    return cluster_begin_lba + ((cluster - 2) * sectors_per_cluster);
}

uint32_t fat32_get_next_cluster(uint32_t cluster) {
  101700:	55                   	push   %ebp
  101701:	89 e5                	mov    %esp,%ebp
  101703:	53                   	push   %ebx
  101704:	81 ec 00 02 00 00    	sub    $0x200,%esp
    uint32_t fat_sector = fat_begin_lba + ((cluster * 4) / 512);
  10170a:	8b 45 08             	mov    0x8(%ebp),%eax
  10170d:	8d 1c 85 00 00 00 00 	lea    0x0(,%eax,4),%ebx
    uint32_t offset = (cluster * 4) % 512;
    uint32_t buffer[128];

    if (!ata_read_sectors(fat_sector, 1, buffer)) {
  101714:	8d 85 fc fd ff ff    	lea    -0x204(%ebp),%eax
  10171a:	50                   	push   %eax
    uint32_t fat_sector = fat_begin_lba + ((cluster * 4) / 512);
  10171b:	89 d8                	mov    %ebx,%eax
  10171d:	c1 e8 09             	shr    $0x9,%eax
  101720:	03 05 b8 7b 10 00    	add    0x107bb8,%eax
    if (!ata_read_sectors(fat_sector, 1, buffer)) {
  101726:	6a 01                	push   $0x1
  101728:	50                   	push   %eax
  101729:	e8 92 fa ff ff       	call   1011c0 <ata_read_sectors>
  10172e:	83 c4 0c             	add    $0xc,%esp
  101731:	89 c2                	mov    %eax,%edx
  101733:	b8 f7 ff ff 0f       	mov    $0xffffff7,%eax
  101738:	85 d2                	test   %edx,%edx
  10173a:	74 12                	je     10174e <fat32_get_next_cluster+0x4e>
        return 0x0FFFFFF7;
    }

    return buffer[offset/4] & 0x0FFFFFFF;
  10173c:	81 e3 fc 01 00 00    	and    $0x1fc,%ebx
  101742:	8b 84 2b fc fd ff ff 	mov    -0x204(%ebx,%ebp,1),%eax
  101749:	25 ff ff ff 0f       	and    $0xfffffff,%eax
}
  10174e:	8b 5d fc             	mov    -0x4(%ebp),%ebx
  101751:	c9                   	leave
  101752:	c3                   	ret
  101753:	2e 8d b4 26 00 00 00 	lea    %cs:0x0(%esi,%eiz,1),%esi
  10175a:	00 
  10175b:	2e 8d 74 26 00       	lea    %cs:0x0(%esi,%eiz,1),%esi

00101760 <fat32_change_directory>:

bool fat32_change_directory(const char* dirname) {
  101760:	55                   	push   %ebp
  101761:	89 e5                	mov    %esp,%ebp
  101763:	57                   	push   %edi
  101764:	56                   	push   %esi
  101765:	53                   	push   %ebx
  101766:	81 ec 20 04 00 00    	sub    $0x420,%esp
    if (!is_initialized) return false;
  10176c:	8b 3d 1c 7c 10 00    	mov    0x107c1c,%edi
bool fat32_change_directory(const char* dirname) {
  101772:	8b 5d 08             	mov    0x8(%ebp),%ebx
    if (!is_initialized) return false;
  101775:	85 ff                	test   %edi,%edi
  101777:	75 0f                	jne    101788 <fat32_change_directory+0x28>
            return false;
        }
    }

    return false;
}
  101779:	8d 65 f4             	lea    -0xc(%ebp),%esp
    if (!is_initialized) return false;
  10177c:	31 c0                	xor    %eax,%eax
}
  10177e:	5b                   	pop    %ebx
  10177f:	5e                   	pop    %esi
  101780:	5f                   	pop    %edi
  101781:	5d                   	pop    %ebp
  101782:	c3                   	ret
  101783:	2e 8d 74 26 00       	lea    %cs:0x0(%esi,%eiz,1),%esi
    if (strcmp(dirname, "/") == 0) {
  101788:	68 5e 44 10 00       	push   $0x10445e
  10178d:	53                   	push   %ebx
  10178e:	e8 7d 19 00 00       	call   103110 <strcmp>
  101793:	59                   	pop    %ecx
  101794:	5e                   	pop    %esi
  101795:	85 c0                	test   %eax,%eax
  101797:	74 4f                	je     1017e8 <fat32_change_directory+0x88>
    if (strcmp(dirname, "..") == 0) {
  101799:	68 7b 44 10 00       	push   $0x10447b
  10179e:	53                   	push   %ebx
  10179f:	e8 6c 19 00 00       	call   103110 <strcmp>
  1017a4:	5e                   	pop    %esi
  1017a5:	5f                   	pop    %edi
  1017a6:	85 c0                	test   %eax,%eax
  1017a8:	75 6e                	jne    101818 <fat32_change_directory+0xb8>
        if (directory_depth > 0) {
  1017aa:	a1 80 69 10 00       	mov    0x106980,%eax
  1017af:	85 c0                	test   %eax,%eax
  1017b1:	7e c6                	jle    101779 <fat32_change_directory+0x19>
            directory_depth--;
  1017b3:	83 e8 01             	sub    $0x1,%eax
            current_directory = parent_directories[directory_depth];
  1017b6:	bf a0 7a 10 00       	mov    $0x107aa0,%edi
  1017bb:	b9 44 00 00 00       	mov    $0x44,%ecx
            directory_depth--;
  1017c0:	a3 80 69 10 00       	mov    %eax,0x106980
            current_directory = parent_directories[directory_depth];
  1017c5:	69 c0 10 01 00 00    	imul   $0x110,%eax,%eax
  1017cb:	8d b0 a0 69 10 00    	lea    0x1069a0(%eax),%esi
  1017d1:	f3 a5                	rep movsl %ds:(%esi),%es:(%edi)
            update_path();
  1017d3:	e8 e8 fc ff ff       	call   1014c0 <update_path>
}
  1017d8:	8d 65 f4             	lea    -0xc(%ebp),%esp
        return true;
  1017db:	b8 01 00 00 00       	mov    $0x1,%eax
}
  1017e0:	5b                   	pop    %ebx
  1017e1:	5e                   	pop    %esi
  1017e2:	5f                   	pop    %edi
  1017e3:	5d                   	pop    %ebp
  1017e4:	c3                   	ret
  1017e5:	8d 76 00             	lea    0x0(%esi),%esi
        current_directory.cluster = boot_sector.root_cluster;
  1017e8:	a1 ec 7b 10 00       	mov    0x107bec,%eax
  1017ed:	a3 a0 7a 10 00       	mov    %eax,0x107aa0
        strcpy(current_directory.name, "/");
  1017f2:	68 5e 44 10 00       	push   $0x10445e
  1017f7:	68 a4 7a 10 00       	push   $0x107aa4
  1017fc:	e8 6f 19 00 00       	call   103170 <strcpy>
        directory_depth = 0;
  101801:	c7 05 80 69 10 00 00 	movl   $0x0,0x106980
  101808:	00 00 00 
        update_path();
  10180b:	e8 b0 fc ff ff       	call   1014c0 <update_path>
        return true;
  101810:	58                   	pop    %eax
  101811:	5a                   	pop    %edx
  101812:	eb c4                	jmp    1017d8 <fat32_change_directory+0x78>
  101814:	8d 74 26 00          	lea    0x0(%esi,%eiz,1),%esi
    if (strcmp(dirname, ".") == 0) {
  101818:	68 7c 44 10 00       	push   $0x10447c
  10181d:	53                   	push   %ebx
  10181e:	e8 ed 18 00 00       	call   103110 <strcmp>
  101823:	5a                   	pop    %edx
  101824:	59                   	pop    %ecx
  101825:	85 c0                	test   %eax,%eax
  101827:	74 af                	je     1017d8 <fat32_change_directory+0x78>
    memset(fat_name, ' ', 11);
  101829:	8d bd e9 fb ff ff    	lea    -0x417(%ebp),%edi
  10182f:	6a 0b                	push   $0xb
  101831:	6a 20                	push   $0x20
  101833:	57                   	push   %edi
  101834:	e8 f7 17 00 00       	call   103030 <memset>
    while (*dot && *dot != '.' && name_len < 8) {
  101839:	0f b6 03             	movzbl (%ebx),%eax
  10183c:	83 c4 0c             	add    $0xc,%esp
  10183f:	84 c0                	test   %al,%al
  101841:	74 71                	je     1018b4 <fat32_change_directory+0x154>
  101843:	3c 2e                	cmp    $0x2e,%al
  101845:	0f 84 85 02 00 00    	je     101ad0 <fat32_change_directory+0x370>
    size_t name_len = 0;
  10184b:	89 5d 08             	mov    %ebx,0x8(%ebp)
  10184e:	31 d2                	xor    %edx,%edx
  101850:	eb 33                	jmp    101885 <fat32_change_directory+0x125>
  101852:	eb 2c                	jmp    101880 <fat32_change_directory+0x120>
  101854:	2e 8d b4 26 00 00 00 	lea    %cs:0x0(%esi,%eiz,1),%esi
  10185b:	00 
  10185c:	2e 8d b4 26 00 00 00 	lea    %cs:0x0(%esi,%eiz,1),%esi
  101863:	00 
  101864:	2e 8d b4 26 00 00 00 	lea    %cs:0x0(%esi,%eiz,1),%esi
  10186b:	00 
  10186c:	2e 8d b4 26 00 00 00 	lea    %cs:0x0(%esi,%eiz,1),%esi
  101873:	00 
  101874:	2e 8d b4 26 00 00 00 	lea    %cs:0x0(%esi,%eiz,1),%esi
  10187b:	00 
  10187c:	8d 74 26 00          	lea    0x0(%esi,%eiz,1),%esi
    while (*dot && *dot != '.' && name_len < 8) {
  101880:	83 fa 08             	cmp    $0x8,%edx
  101883:	74 2c                	je     1018b1 <fat32_change_directory+0x151>
        fat_name[name_len] = (*dot >= 'a' && *dot <= 'z') ? 
  101885:	8d 70 9f             	lea    -0x61(%eax),%esi
                            (*dot - 'a' + 'A') : *dot;
  101888:	8d 48 e0             	lea    -0x20(%eax),%ecx
  10188b:	89 f3                	mov    %esi,%ebx
  10188d:	80 fb 1a             	cmp    $0x1a,%bl
  101890:	0f 42 c1             	cmovb  %ecx,%eax
        dot++;
  101893:	83 45 08 01          	addl   $0x1,0x8(%ebp)
        fat_name[name_len] = (*dot >= 'a' && *dot <= 'z') ? 
  101897:	88 04 17             	mov    %al,(%edi,%edx,1)
    while (*dot && *dot != '.' && name_len < 8) {
  10189a:	8b 45 08             	mov    0x8(%ebp),%eax
        name_len++;
  10189d:	83 c2 01             	add    $0x1,%edx
    while (*dot && *dot != '.' && name_len < 8) {
  1018a0:	0f b6 00             	movzbl (%eax),%eax
  1018a3:	84 c0                	test   %al,%al
  1018a5:	0f 95 c3             	setne  %bl
  1018a8:	3c 2e                	cmp    $0x2e,%al
  1018aa:	0f 95 c1             	setne  %cl
  1018ad:	84 cb                	test   %cl,%bl
  1018af:	75 cf                	jne    101880 <fat32_change_directory+0x120>
  1018b1:	8b 5d 08             	mov    0x8(%ebp),%ebx
    if (*dot == '.' && dot[1]) {
  1018b4:	3c 2e                	cmp    $0x2e,%al
  1018b6:	0f 84 14 02 00 00    	je     101ad0 <fat32_change_directory+0x370>
    uint32_t current_cluster = current_directory.cluster;
  1018bc:	a1 a0 7a 10 00       	mov    0x107aa0,%eax
    while (current_cluster < 0x0FFFFFF8) {
  1018c1:	3d f7 ff ff 0f       	cmp    $0xffffff7,%eax
  1018c6:	0f 87 ad fe ff ff    	ja     101779 <fat32_change_directory+0x19>
    return cluster_begin_lba + ((cluster - 2) * sectors_per_cluster);
  1018cc:	8b 0d b0 7b 10 00    	mov    0x107bb0,%ecx
  1018d2:	8d 50 fe             	lea    -0x2(%eax),%edx
        for (uint32_t i = 0; i < sectors_per_cluster; i++) {
  1018d5:	31 db                	xor    %ebx,%ebx
    return cluster_begin_lba + ((cluster - 2) * sectors_per_cluster);
  1018d7:	0f af d1             	imul   %ecx,%edx
  1018da:	03 15 b4 7b 10 00    	add    0x107bb4,%edx
  1018e0:	89 d6                	mov    %edx,%esi
        for (uint32_t i = 0; i < sectors_per_cluster; i++) {
  1018e2:	85 c9                	test   %ecx,%ecx
  1018e4:	0f 84 97 01 00 00    	je     101a81 <fat32_change_directory+0x321>
  1018ea:	89 85 d4 fb ff ff    	mov    %eax,-0x42c(%ebp)
            if (!ata_read_sectors(current_sector + i, 1, buffer)) {
  1018f0:	8d 85 f4 fd ff ff    	lea    -0x20c(%ebp),%eax
  1018f6:	50                   	push   %eax
  1018f7:	8d 04 1e             	lea    (%esi,%ebx,1),%eax
  1018fa:	6a 01                	push   $0x1
  1018fc:	50                   	push   %eax
  1018fd:	e8 be f8 ff ff       	call   1011c0 <ata_read_sectors>
  101902:	83 c4 0c             	add    $0xc,%esp
  101905:	85 c0                	test   %eax,%eax
  101907:	0f 84 6c fe ff ff    	je     101779 <fat32_change_directory+0x19>
  10190d:	8d 85 f4 fd ff ff    	lea    -0x20c(%ebp),%eax
  101913:	89 9d dc fb ff ff    	mov    %ebx,-0x424(%ebp)
  101919:	89 85 e4 fb ff ff    	mov    %eax,-0x41c(%ebp)
  10191f:	89 b5 d8 fb ff ff    	mov    %esi,-0x428(%ebp)
  101925:	2e 8d b4 26 00 00 00 	lea    %cs:0x0(%esi,%eiz,1),%esi
  10192c:	00 
  10192d:	8d 76 00             	lea    0x0(%esi),%esi
                if (entry[j].name[0] == 0x00) {
  101930:	8b b5 e4 fb ff ff    	mov    -0x41c(%ebp),%esi
  101936:	0f b6 06             	movzbl (%esi),%eax
  101939:	84 c0                	test   %al,%al
  10193b:	0f 84 38 fe ff ff    	je     101779 <fat32_change_directory+0x19>
                if (entry[j].name[0] == 0xE5 || entry[j].attributes == 0x08) {
  101941:	3c e5                	cmp    $0xe5,%al
  101943:	0f 84 ff 00 00 00    	je     101a48 <fat32_change_directory+0x2e8>
  101949:	0f b6 46 0b          	movzbl 0xb(%esi),%eax
  10194d:	3c 08                	cmp    $0x8,%al
  10194f:	0f 84 f3 00 00 00    	je     101a48 <fat32_change_directory+0x2e8>
                if (!(entry[j].attributes & 0x10)) {
  101955:	a8 10                	test   $0x10,%al
  101957:	0f 84 eb 00 00 00    	je     101a48 <fat32_change_directory+0x2e8>
    for (i = 0; i < 11; i++) {
  10195d:	31 d2                	xor    %edx,%edx
  10195f:	90                   	nop
        if (dir_name[i] == ' ') {
  101960:	8b 85 e4 fb ff ff    	mov    -0x41c(%ebp),%eax
        char c1 = fat_name[i];
  101966:	0f b6 0c 17          	movzbl (%edi,%edx,1),%ecx
        if (dir_name[i] == ' ') {
  10196a:	0f b6 04 10          	movzbl (%eax,%edx,1),%eax
  10196e:	3c 20                	cmp    $0x20,%al
  101970:	0f 84 ba 00 00 00    	je     101a30 <fat32_change_directory+0x2d0>
        if (c1 >= 'a' && c1 <= 'z') c1 = c1 - 'a' + 'A';
  101976:	8d 71 9f             	lea    -0x61(%ecx),%esi
  101979:	8d 59 e0             	lea    -0x20(%ecx),%ebx
  10197c:	88 9d e3 fb ff ff    	mov    %bl,-0x41d(%ebp)
  101982:	89 f3                	mov    %esi,%ebx
        if (c2 >= 'a' && c2 <= 'z') c2 = c2 - 'a' + 'A';
  101984:	8d 70 9f             	lea    -0x61(%eax),%esi
        if (c1 >= 'a' && c1 <= 'z') c1 = c1 - 'a' + 'A';
  101987:	80 fb 1a             	cmp    $0x1a,%bl
  10198a:	0f b6 9d e3 fb ff ff 	movzbl -0x41d(%ebp),%ebx
  101991:	0f 42 cb             	cmovb  %ebx,%ecx
        if (c2 >= 'a' && c2 <= 'z') c2 = c2 - 'a' + 'A';
  101994:	8d 58 e0             	lea    -0x20(%eax),%ebx
  101997:	88 9d e3 fb ff ff    	mov    %bl,-0x41d(%ebp)
  10199d:	89 f3                	mov    %esi,%ebx
  10199f:	80 fb 1a             	cmp    $0x1a,%bl
  1019a2:	0f b6 9d e3 fb ff ff 	movzbl -0x41d(%ebp),%ebx
  1019a9:	0f 42 c3             	cmovb  %ebx,%eax
        if (c1 != c2) return false;
  1019ac:	38 c1                	cmp    %al,%cl
  1019ae:	0f 85 94 00 00 00    	jne    101a48 <fat32_change_directory+0x2e8>
    for (i = 0; i < 11; i++) {
  1019b4:	83 c2 01             	add    $0x1,%edx
  1019b7:	83 fa 0b             	cmp    $0xb,%edx
  1019ba:	75 a4                	jne    101960 <fat32_change_directory+0x200>
                    if (directory_depth < 16) {
  1019bc:	a1 80 69 10 00       	mov    0x106980,%eax
  1019c1:	83 f8 0f             	cmp    $0xf,%eax
  1019c4:	7f 22                	jg     1019e8 <fat32_change_directory+0x288>
                        parent_directories[directory_depth++] = current_directory;
  1019c6:	8d 50 01             	lea    0x1(%eax),%edx
  1019c9:	be a0 7a 10 00       	mov    $0x107aa0,%esi
  1019ce:	b9 44 00 00 00       	mov    $0x44,%ecx
  1019d3:	69 c0 10 01 00 00    	imul   $0x110,%eax,%eax
  1019d9:	89 15 80 69 10 00    	mov    %edx,0x106980
  1019df:	05 a0 69 10 00       	add    $0x1069a0,%eax
  1019e4:	89 c7                	mov    %eax,%edi
  1019e6:	f3 a5                	rep movsl %ds:(%esi),%es:(%edi)
                    uint32_t new_cluster = ((uint32_t)entry[j].first_cluster_high << 16) |
  1019e8:	8b bd e4 fb ff ff    	mov    -0x41c(%ebp),%edi
  1019ee:	0f b7 47 14          	movzwl 0x14(%edi),%eax
                                          entry[j].first_cluster_low;
  1019f2:	0f b7 57 1a          	movzwl 0x1a(%edi),%edx
                    uint32_t new_cluster = ((uint32_t)entry[j].first_cluster_high << 16) |
  1019f6:	c1 e0 10             	shl    $0x10,%eax
  1019f9:	09 d0                	or     %edx,%eax
  1019fb:	a3 a0 7a 10 00       	mov    %eax,0x107aa0
                    memcpy(current_directory.name, entry[j].name, 11);
  101a00:	6a 0b                	push   $0xb
  101a02:	57                   	push   %edi
  101a03:	68 a4 7a 10 00       	push   $0x107aa4
  101a08:	e8 73 16 00 00       	call   103080 <memcpy>
                    current_directory.name[11] = '\0';
  101a0d:	c6 05 af 7a 10 00 00 	movb   $0x0,0x107aaf
                    update_path();
  101a14:	e8 a7 fa ff ff       	call   1014c0 <update_path>
                    return true;
  101a19:	83 c4 0c             	add    $0xc,%esp
  101a1c:	e9 b7 fd ff ff       	jmp    1017d8 <fat32_change_directory+0x78>
  101a21:	2e 8d b4 26 00 00 00 	lea    %cs:0x0(%esi,%eiz,1),%esi
  101a28:	00 
  101a29:	8d b4 26 00 00 00 00 	lea    0x0(%esi,%eiz,1),%esi
            while (i < 11 && fat_name[i] == ' ') i++;
  101a30:	80 3c 17 20          	cmpb   $0x20,(%edi,%edx,1)
  101a34:	75 12                	jne    101a48 <fat32_change_directory+0x2e8>
  101a36:	83 c2 01             	add    $0x1,%edx
  101a39:	83 fa 0b             	cmp    $0xb,%edx
  101a3c:	75 f2                	jne    101a30 <fat32_change_directory+0x2d0>
  101a3e:	e9 79 ff ff ff       	jmp    1019bc <fat32_change_directory+0x25c>
  101a43:	2e 8d 74 26 00       	lea    %cs:0x0(%esi,%eiz,1),%esi
            for (uint32_t j = 0; j < (SECTOR_SIZE / sizeof(fat32_dir_entry_t)); j++) {
  101a48:	83 85 e4 fb ff ff 20 	addl   $0x20,-0x41c(%ebp)
  101a4f:	8b 85 e4 fb ff ff    	mov    -0x41c(%ebp),%eax
  101a55:	8d 4d f4             	lea    -0xc(%ebp),%ecx
  101a58:	39 c1                	cmp    %eax,%ecx
  101a5a:	0f 85 d0 fe ff ff    	jne    101930 <fat32_change_directory+0x1d0>
        for (uint32_t i = 0; i < sectors_per_cluster; i++) {
  101a60:	8b 9d dc fb ff ff    	mov    -0x424(%ebp),%ebx
  101a66:	8b b5 d8 fb ff ff    	mov    -0x428(%ebp),%esi
  101a6c:	83 c3 01             	add    $0x1,%ebx
  101a6f:	3b 1d b0 7b 10 00    	cmp    0x107bb0,%ebx
  101a75:	0f 82 75 fe ff ff    	jb     1018f0 <fat32_change_directory+0x190>
  101a7b:	8b 85 d4 fb ff ff    	mov    -0x42c(%ebp),%eax
    uint32_t fat_sector = fat_begin_lba + ((cluster * 4) / 512);
  101a81:	8d 1c 85 00 00 00 00 	lea    0x0(,%eax,4),%ebx
    if (!ata_read_sectors(fat_sector, 1, buffer)) {
  101a88:	8d 85 f4 fb ff ff    	lea    -0x40c(%ebp),%eax
  101a8e:	50                   	push   %eax
    uint32_t fat_sector = fat_begin_lba + ((cluster * 4) / 512);
  101a8f:	89 d8                	mov    %ebx,%eax
    if (!ata_read_sectors(fat_sector, 1, buffer)) {
  101a91:	6a 01                	push   $0x1
    uint32_t fat_sector = fat_begin_lba + ((cluster * 4) / 512);
  101a93:	c1 e8 09             	shr    $0x9,%eax
  101a96:	03 05 b8 7b 10 00    	add    0x107bb8,%eax
    if (!ata_read_sectors(fat_sector, 1, buffer)) {
  101a9c:	50                   	push   %eax
  101a9d:	e8 1e f7 ff ff       	call   1011c0 <ata_read_sectors>
  101aa2:	83 c4 0c             	add    $0xc,%esp
  101aa5:	85 c0                	test   %eax,%eax
  101aa7:	74 63                	je     101b0c <fat32_change_directory+0x3ac>
    return buffer[offset/4] & 0x0FFFFFFF;
  101aa9:	81 e3 fc 01 00 00    	and    $0x1fc,%ebx
  101aaf:	8b 84 2b f4 fb ff ff 	mov    -0x40c(%ebx,%ebp,1),%eax
        if (current_cluster == 0) {
  101ab6:	25 ff ff ff 0f       	and    $0xfffffff,%eax
  101abb:	0f 85 00 fe ff ff    	jne    1018c1 <fat32_change_directory+0x161>
  101ac1:	e9 b3 fc ff ff       	jmp    101779 <fat32_change_directory+0x19>
  101ac6:	2e 8d b4 26 00 00 00 	lea    %cs:0x0(%esi,%eiz,1),%esi
  101acd:	00 
  101ace:	66 90                	xchg   %ax,%ax
    if (*dot == '.' && dot[1]) {
  101ad0:	0f b6 43 01          	movzbl 0x1(%ebx),%eax
  101ad4:	84 c0                	test   %al,%al
  101ad6:	0f 84 e0 fd ff ff    	je     1018bc <fat32_change_directory+0x15c>
        size_t ext_pos = 8;
  101adc:	ba 08 00 00 00       	mov    $0x8,%edx
  101ae1:	89 de                	mov    %ebx,%esi
            fat_name[ext_pos] = (*dot >= 'a' && *dot <= 'z') ? 
  101ae3:	8d 58 9f             	lea    -0x61(%eax),%ebx
                               (*dot - 'a' + 'A') : *dot;
  101ae6:	8d 48 e0             	lea    -0x20(%eax),%ecx
  101ae9:	80 fb 1a             	cmp    $0x1a,%bl
  101aec:	0f 42 c1             	cmovb  %ecx,%eax
            fat_name[ext_pos] = (*dot >= 'a' && *dot <= 'z') ? 
  101aef:	88 04 17             	mov    %al,(%edi,%edx,1)
            ext_pos++;
  101af2:	83 c2 01             	add    $0x1,%edx
        while (*dot && ext_pos < 11) {
  101af5:	0f b6 44 16 f9       	movzbl -0x7(%esi,%edx,1),%eax
  101afa:	84 c0                	test   %al,%al
  101afc:	0f 84 ba fd ff ff    	je     1018bc <fat32_change_directory+0x15c>
  101b02:	83 fa 0b             	cmp    $0xb,%edx
  101b05:	75 dc                	jne    101ae3 <fat32_change_directory+0x383>
  101b07:	e9 b0 fd ff ff       	jmp    1018bc <fat32_change_directory+0x15c>
        current_cluster = fat32_get_next_cluster(current_cluster);
  101b0c:	b8 f7 ff ff 0f       	mov    $0xffffff7,%eax
  101b11:	e9 b6 fd ff ff       	jmp    1018cc <fat32_change_directory+0x16c>
  101b16:	2e 8d b4 26 00 00 00 	lea    %cs:0x0(%esi,%eiz,1),%esi
  101b1d:	00 
  101b1e:	66 90                	xchg   %ax,%ax

00101b20 <fat32_list_directory>:

bool fat32_list_directory(void (*callback)(const char* name, uint32_t size, uint8_t attr)) {
  101b20:	55                   	push   %ebp
  101b21:	89 e5                	mov    %esp,%ebp
  101b23:	57                   	push   %edi
  101b24:	56                   	push   %esi
  101b25:	53                   	push   %ebx
  101b26:	81 ec 08 04 00 00    	sub    $0x408,%esp
    if (!is_initialized) return false;
  101b2c:	8b 15 1c 7c 10 00    	mov    0x107c1c,%edx
bool fat32_list_directory(void (*callback)(const char* name, uint32_t size, uint8_t attr)) {
  101b32:	8b 7d 08             	mov    0x8(%ebp),%edi

    uint32_t current_cluster = current_directory.cluster;
  101b35:	a1 a0 7a 10 00       	mov    0x107aa0,%eax
    if (!is_initialized) return false;
  101b3a:	85 d2                	test   %edx,%edx
  101b3c:	0f 84 df 00 00 00    	je     101c21 <fat32_list_directory+0x101>
    uint8_t buffer[512];
    fat32_dir_entry_t* entry;

    while (current_cluster < 0x0FFFFFF8) {
  101b42:	3d f7 ff ff 0f       	cmp    $0xffffff7,%eax
  101b47:	0f 87 e3 00 00 00    	ja     101c30 <fat32_list_directory+0x110>
  101b4d:	89 c2                	mov    %eax,%edx
    return cluster_begin_lba + ((cluster - 2) * sectors_per_cluster);
  101b4f:	8b 0d b0 7b 10 00    	mov    0x107bb0,%ecx
  101b55:	8d 42 fe             	lea    -0x2(%edx),%eax
  101b58:	0f af c1             	imul   %ecx,%eax
  101b5b:	03 05 b4 7b 10 00    	add    0x107bb4,%eax
  101b61:	89 85 f0 fb ff ff    	mov    %eax,-0x410(%ebp)
        uint32_t current_sector = cluster_to_lba(current_cluster);
        
        for (uint32_t i = 0; i < sectors_per_cluster; i++) {
  101b67:	85 c9                	test   %ecx,%ecx
  101b69:	74 76                	je     101be1 <fat32_list_directory+0xc1>
  101b6b:	89 95 ec fb ff ff    	mov    %edx,-0x414(%ebp)
  101b71:	31 db                	xor    %ebx,%ebx
            if (!ata_read_sectors(current_sector + i, 1, buffer)) {
  101b73:	8d 85 f4 fd ff ff    	lea    -0x20c(%ebp),%eax
  101b79:	50                   	push   %eax
  101b7a:	8b 85 f0 fb ff ff    	mov    -0x410(%ebp),%eax
  101b80:	6a 01                	push   $0x1
  101b82:	01 d8                	add    %ebx,%eax
  101b84:	50                   	push   %eax
  101b85:	e8 36 f6 ff ff       	call   1011c0 <ata_read_sectors>
  101b8a:	83 c4 0c             	add    $0xc,%esp
  101b8d:	85 c0                	test   %eax,%eax
  101b8f:	0f 84 8c 00 00 00    	je     101c21 <fat32_list_directory+0x101>
  101b95:	8d b5 f4 fd ff ff    	lea    -0x20c(%ebp),%esi
  101b9b:	2e 8d 74 26 00       	lea    %cs:0x0(%esi,%eiz,1),%esi
            }

            entry = (fat32_dir_entry_t*)buffer;
            for (uint32_t j = 0; j < (SECTOR_SIZE / sizeof(fat32_dir_entry_t)); j++) {
                // Check for end of directory
                if (entry[j].name[0] == 0x00) {
  101ba0:	0f b6 06             	movzbl (%esi),%eax
  101ba3:	84 c0                	test   %al,%al
  101ba5:	0f 84 85 00 00 00    	je     101c30 <fat32_list_directory+0x110>
                    return true;
                }

                // Skip deleted entries, volume labels, and special entries (. and ..)
                if (entry[j].name[0] == 0xE5 || 
  101bab:	3c e5                	cmp    $0xe5,%al
  101bad:	74 17                	je     101bc6 <fat32_list_directory+0xa6>
                    entry[j].attributes == 0x08 ||
  101baf:	0f b6 56 0b          	movzbl 0xb(%esi),%edx
  101bb3:	3c 2e                	cmp    $0x2e,%al
  101bb5:	74 0f                	je     101bc6 <fat32_list_directory+0xa6>
  101bb7:	80 fa 08             	cmp    $0x8,%dl
  101bba:	74 0a                	je     101bc6 <fat32_list_directory+0xa6>
                    entry[j].name[0] == '.') {
                    continue;
                }

                callback((char*)entry[j].name, entry[j].file_size, entry[j].attributes);
  101bbc:	52                   	push   %edx
  101bbd:	ff 76 1c             	push   0x1c(%esi)
  101bc0:	56                   	push   %esi
  101bc1:	ff d7                	call   *%edi
  101bc3:	83 c4 0c             	add    $0xc,%esp
            for (uint32_t j = 0; j < (SECTOR_SIZE / sizeof(fat32_dir_entry_t)); j++) {
  101bc6:	83 c6 20             	add    $0x20,%esi
  101bc9:	8d 45 f4             	lea    -0xc(%ebp),%eax
  101bcc:	39 c6                	cmp    %eax,%esi
  101bce:	75 d0                	jne    101ba0 <fat32_list_directory+0x80>
        for (uint32_t i = 0; i < sectors_per_cluster; i++) {
  101bd0:	83 c3 01             	add    $0x1,%ebx
  101bd3:	3b 1d b0 7b 10 00    	cmp    0x107bb0,%ebx
  101bd9:	72 98                	jb     101b73 <fat32_list_directory+0x53>
  101bdb:	8b 95 ec fb ff ff    	mov    -0x414(%ebp),%edx
    uint32_t fat_sector = fat_begin_lba + ((cluster * 4) / 512);
  101be1:	8d 1c 95 00 00 00 00 	lea    0x0(,%edx,4),%ebx
    if (!ata_read_sectors(fat_sector, 1, buffer)) {
  101be8:	8d 85 f4 fb ff ff    	lea    -0x40c(%ebp),%eax
  101bee:	50                   	push   %eax
    uint32_t fat_sector = fat_begin_lba + ((cluster * 4) / 512);
  101bef:	89 d8                	mov    %ebx,%eax
    if (!ata_read_sectors(fat_sector, 1, buffer)) {
  101bf1:	6a 01                	push   $0x1
    uint32_t fat_sector = fat_begin_lba + ((cluster * 4) / 512);
  101bf3:	c1 e8 09             	shr    $0x9,%eax
  101bf6:	03 05 b8 7b 10 00    	add    0x107bb8,%eax
    if (!ata_read_sectors(fat_sector, 1, buffer)) {
  101bfc:	50                   	push   %eax
  101bfd:	e8 be f5 ff ff       	call   1011c0 <ata_read_sectors>
  101c02:	83 c4 0c             	add    $0xc,%esp
  101c05:	85 c0                	test   %eax,%eax
  101c07:	74 34                	je     101c3d <fat32_list_directory+0x11d>
    return buffer[offset/4] & 0x0FFFFFFF;
  101c09:	81 e3 fc 01 00 00    	and    $0x1fc,%ebx
  101c0f:	8b 84 2b f4 fb ff ff 	mov    -0x40c(%ebx,%ebp,1),%eax
            }
        }

        current_cluster = fat32_get_next_cluster(current_cluster);
        if (current_cluster == 0) {
  101c16:	25 ff ff ff 0f       	and    $0xfffffff,%eax
  101c1b:	0f 85 21 ff ff ff    	jne    101b42 <fat32_list_directory+0x22>
            return false;
        }
    }

    return true;
}
  101c21:	8d 65 f4             	lea    -0xc(%ebp),%esp
    if (!is_initialized) return false;
  101c24:	31 c0                	xor    %eax,%eax
}
  101c26:	5b                   	pop    %ebx
  101c27:	5e                   	pop    %esi
  101c28:	5f                   	pop    %edi
  101c29:	5d                   	pop    %ebp
  101c2a:	c3                   	ret
  101c2b:	2e 8d 74 26 00       	lea    %cs:0x0(%esi,%eiz,1),%esi
  101c30:	8d 65 f4             	lea    -0xc(%ebp),%esp
                    return true;
  101c33:	b8 01 00 00 00       	mov    $0x1,%eax
}
  101c38:	5b                   	pop    %ebx
  101c39:	5e                   	pop    %esi
  101c3a:	5f                   	pop    %edi
  101c3b:	5d                   	pop    %ebp
  101c3c:	c3                   	ret
        current_cluster = fat32_get_next_cluster(current_cluster);
  101c3d:	ba f7 ff ff 0f       	mov    $0xffffff7,%edx
  101c42:	e9 08 ff ff ff       	jmp    101b4f <fat32_list_directory+0x2f>
  101c47:	2e 8d b4 26 00 00 00 	lea    %cs:0x0(%esi,%eiz,1),%esi
  101c4e:	00 
  101c4f:	90                   	nop

00101c50 <fat32_is_directory>:

bool fat32_is_directory(const fat32_dir_entry_t* entry) {
  101c50:	55                   	push   %ebp
  101c51:	89 e5                	mov    %esp,%ebp
    return (entry->attributes & ATTR_DIRECTORY) != 0;
  101c53:	8b 45 08             	mov    0x8(%ebp),%eax
}
  101c56:	5d                   	pop    %ebp
    return (entry->attributes & ATTR_DIRECTORY) != 0;
  101c57:	0f b6 40 0b          	movzbl 0xb(%eax),%eax
  101c5b:	c0 e8 04             	shr    $0x4,%al
  101c5e:	83 e0 01             	and    $0x1,%eax
}
  101c61:	c3                   	ret
  101c62:	2e 8d b4 26 00 00 00 	lea    %cs:0x0(%esi,%eiz,1),%esi
  101c69:	00 
  101c6a:	8d b6 00 00 00 00    	lea    0x0(%esi),%esi

00101c70 <fat32_create_file>:

bool fat32_create_file(const char* name) {
    if (!is_initialized) return false;
  101c70:	a1 1c 7c 10 00       	mov    0x107c1c,%eax
  101c75:	85 c0                	test   %eax,%eax
  101c77:	0f 84 33 01 00 00    	je     101db0 <fat32_create_file+0x140>

    uint32_t current_cluster = current_directory.cluster;
  101c7d:	a1 a0 7a 10 00       	mov    0x107aa0,%eax
    uint8_t buffer[512];
    fat32_dir_entry_t* entry;

    while (current_cluster < 0x0FFFFFF8) {
  101c82:	3d f7 ff ff 0f       	cmp    $0xffffff7,%eax
  101c87:	0f 87 23 01 00 00    	ja     101db0 <fat32_create_file+0x140>
bool fat32_create_file(const char* name) {
  101c8d:	55                   	push   %ebp
  101c8e:	89 e5                	mov    %esp,%ebp
  101c90:	57                   	push   %edi
  101c91:	56                   	push   %esi
  101c92:	53                   	push   %ebx
  101c93:	81 ec 0c 04 00 00    	sub    $0x40c,%esp
    return cluster_begin_lba + ((cluster - 2) * sectors_per_cluster);
  101c99:	8b 15 b0 7b 10 00    	mov    0x107bb0,%edx
  101c9f:	8d 48 fe             	lea    -0x2(%eax),%ecx
  101ca2:	0f af ca             	imul   %edx,%ecx
  101ca5:	03 0d b4 7b 10 00    	add    0x107bb4,%ecx
        uint32_t current_sector = cluster_to_lba(current_cluster);

        for (uint32_t i = 0; i < sectors_per_cluster; i++) {
  101cab:	85 d2                	test   %edx,%edx
  101cad:	74 67                	je     101d16 <fat32_create_file+0xa6>
  101caf:	89 85 e8 fb ff ff    	mov    %eax,-0x418(%ebp)
  101cb5:	31 ff                	xor    %edi,%edi
  101cb7:	8d b5 f4 fd ff ff    	lea    -0x20c(%ebp),%esi
  101cbd:	89 8d ec fb ff ff    	mov    %ecx,-0x414(%ebp)
            if (!ata_read_sectors(current_sector + i, 1, buffer)) {
  101cc3:	8b 85 ec fb ff ff    	mov    -0x414(%ebp),%eax
  101cc9:	56                   	push   %esi
  101cca:	6a 01                	push   $0x1
  101ccc:	8d 14 38             	lea    (%eax,%edi,1),%edx
  101ccf:	52                   	push   %edx
  101cd0:	89 95 f0 fb ff ff    	mov    %edx,-0x410(%ebp)
  101cd6:	e8 e5 f4 ff ff       	call   1011c0 <ata_read_sectors>
  101cdb:	83 c4 0c             	add    $0xc,%esp
  101cde:	85 c0                	test   %eax,%eax
  101ce0:	74 79                	je     101d5b <fat32_create_file+0xeb>
  101ce2:	8b 95 f0 fb ff ff    	mov    -0x410(%ebp),%edx
  101ce8:	89 f3                	mov    %esi,%ebx
  101cea:	8d b6 00 00 00 00    	lea    0x0(%esi),%esi
                return false;
            }

            entry = (fat32_dir_entry_t*)buffer;
            for (uint32_t j = 0; j < 16; j++) {
                if (entry[j].name[0] == 0x00 || entry[j].name[0] == 0xE5) {
  101cf0:	0f b6 03             	movzbl (%ebx),%eax
  101cf3:	84 c0                	test   %al,%al
  101cf5:	74 71                	je     101d68 <fat32_create_file+0xf8>
  101cf7:	3c e5                	cmp    $0xe5,%al
  101cf9:	74 6d                	je     101d68 <fat32_create_file+0xf8>
            for (uint32_t j = 0; j < 16; j++) {
  101cfb:	83 c3 20             	add    $0x20,%ebx
  101cfe:	8d 45 f4             	lea    -0xc(%ebp),%eax
  101d01:	39 d8                	cmp    %ebx,%eax
  101d03:	75 eb                	jne    101cf0 <fat32_create_file+0x80>
        for (uint32_t i = 0; i < sectors_per_cluster; i++) {
  101d05:	83 c7 01             	add    $0x1,%edi
  101d08:	3b 3d b0 7b 10 00    	cmp    0x107bb0,%edi
  101d0e:	72 b3                	jb     101cc3 <fat32_create_file+0x53>
  101d10:	8b 85 e8 fb ff ff    	mov    -0x418(%ebp),%eax
    uint32_t fat_sector = fat_begin_lba + ((cluster * 4) / 512);
  101d16:	8d 1c 85 00 00 00 00 	lea    0x0(,%eax,4),%ebx
    if (!ata_read_sectors(fat_sector, 1, buffer)) {
  101d1d:	8d 85 f4 fb ff ff    	lea    -0x40c(%ebp),%eax
  101d23:	50                   	push   %eax
    uint32_t fat_sector = fat_begin_lba + ((cluster * 4) / 512);
  101d24:	89 d8                	mov    %ebx,%eax
    if (!ata_read_sectors(fat_sector, 1, buffer)) {
  101d26:	6a 01                	push   $0x1
    uint32_t fat_sector = fat_begin_lba + ((cluster * 4) / 512);
  101d28:	c1 e8 09             	shr    $0x9,%eax
  101d2b:	03 05 b8 7b 10 00    	add    0x107bb8,%eax
    if (!ata_read_sectors(fat_sector, 1, buffer)) {
  101d31:	50                   	push   %eax
  101d32:	e8 89 f4 ff ff       	call   1011c0 <ata_read_sectors>
  101d37:	83 c4 0c             	add    $0xc,%esp
  101d3a:	85 c0                	test   %eax,%eax
  101d3c:	74 75                	je     101db3 <fat32_create_file+0x143>
    return buffer[offset/4] & 0x0FFFFFFF;
  101d3e:	81 e3 fc 01 00 00    	and    $0x1fc,%ebx
  101d44:	8b 84 2b f4 fb ff ff 	mov    -0x40c(%ebx,%ebp,1),%eax
  101d4b:	25 ff ff ff 0f       	and    $0xfffffff,%eax
    while (current_cluster < 0x0FFFFFF8) {
  101d50:	3d f7 ff ff 0f       	cmp    $0xffffff7,%eax
  101d55:	0f 86 3e ff ff ff    	jbe    101c99 <fat32_create_file+0x29>
            }
        }
        current_cluster = fat32_get_next_cluster(current_cluster);
    }
    return false;
}
  101d5b:	8d 65 f4             	lea    -0xc(%ebp),%esp
    if (!is_initialized) return false;
  101d5e:	31 c0                	xor    %eax,%eax
}
  101d60:	5b                   	pop    %ebx
  101d61:	5e                   	pop    %esi
  101d62:	5f                   	pop    %edi
  101d63:	5d                   	pop    %ebp
  101d64:	c3                   	ret
  101d65:	8d 76 00             	lea    0x0(%esi),%esi
                    memset(&entry[j], 0, sizeof(fat32_dir_entry_t));
  101d68:	6a 20                	push   $0x20
  101d6a:	89 d7                	mov    %edx,%edi
  101d6c:	6a 00                	push   $0x0
  101d6e:	53                   	push   %ebx
  101d6f:	e8 bc 12 00 00       	call   103030 <memset>
                    memcpy(entry[j].name, name, 11);
  101d74:	6a 0b                	push   $0xb
  101d76:	ff 75 08             	push   0x8(%ebp)
  101d79:	53                   	push   %ebx
  101d7a:	e8 01 13 00 00       	call   103080 <memcpy>
                    entry[j].attributes = 0x20;
  101d7f:	c6 43 0b 20          	movb   $0x20,0xb(%ebx)
                    entry[j].file_size = 0;
  101d83:	c7 43 1c 00 00 00 00 	movl   $0x0,0x1c(%ebx)
                    if (!ata_write_sectors(current_sector + i, 1, buffer)) {
  101d8a:	56                   	push   %esi
  101d8b:	6a 01                	push   $0x1
  101d8d:	57                   	push   %edi
  101d8e:	e8 8d f5 ff ff       	call   101320 <ata_write_sectors>
  101d93:	83 c4 24             	add    $0x24,%esp
  101d96:	85 c0                	test   %eax,%eax
  101d98:	0f 95 c0             	setne  %al
}
  101d9b:	8d 65 f4             	lea    -0xc(%ebp),%esp
  101d9e:	5b                   	pop    %ebx
                    if (!ata_write_sectors(current_sector + i, 1, buffer)) {
  101d9f:	0f b6 c0             	movzbl %al,%eax
}
  101da2:	5e                   	pop    %esi
  101da3:	5f                   	pop    %edi
  101da4:	5d                   	pop    %ebp
  101da5:	c3                   	ret
  101da6:	2e 8d b4 26 00 00 00 	lea    %cs:0x0(%esi,%eiz,1),%esi
  101dad:	00 
  101dae:	66 90                	xchg   %ax,%ax
    if (!is_initialized) return false;
  101db0:	31 c0                	xor    %eax,%eax
}
  101db2:	c3                   	ret
        return 0x0FFFFFF7;
  101db3:	b8 f7 ff ff 0f       	mov    $0xffffff7,%eax
  101db8:	e9 dc fe ff ff       	jmp    101c99 <fat32_create_file+0x29>
  101dbd:	8d 76 00             	lea    0x0(%esi),%esi

00101dc0 <fat32_delete_file>:

bool fat32_delete_file(const char* name) {
  101dc0:	55                   	push   %ebp
  101dc1:	89 e5                	mov    %esp,%ebp
  101dc3:	57                   	push   %edi
  101dc4:	56                   	push   %esi
  101dc5:	53                   	push   %ebx
  101dc6:	81 ec 0c 04 00 00    	sub    $0x40c,%esp
    if (!is_initialized) return false;
  101dcc:	a1 1c 7c 10 00       	mov    0x107c1c,%eax
bool fat32_delete_file(const char* name) {
  101dd1:	8b 5d 08             	mov    0x8(%ebp),%ebx
    if (!is_initialized) return false;
  101dd4:	85 c0                	test   %eax,%eax
  101dd6:	0f 84 df 00 00 00    	je     101ebb <fat32_delete_file+0xfb>

    uint32_t current_cluster = current_directory.cluster;
  101ddc:	a1 a0 7a 10 00       	mov    0x107aa0,%eax
    uint8_t buffer[512];
    fat32_dir_entry_t* entry;

    while (current_cluster < 0x0FFFFFF8) {
  101de1:	3d f7 ff ff 0f       	cmp    $0xffffff7,%eax
  101de6:	0f 87 cf 00 00 00    	ja     101ebb <fat32_delete_file+0xfb>
    return cluster_begin_lba + ((cluster - 2) * sectors_per_cluster);
  101dec:	8b 15 b0 7b 10 00    	mov    0x107bb0,%edx
  101df2:	8d 48 fe             	lea    -0x2(%eax),%ecx
  101df5:	0f af ca             	imul   %edx,%ecx
  101df8:	03 0d b4 7b 10 00    	add    0x107bb4,%ecx
        uint32_t current_sector = cluster_to_lba(current_cluster);

        for (uint32_t i = 0; i < sectors_per_cluster; i++) {
  101dfe:	85 d2                	test   %edx,%edx
  101e00:	74 74                	je     101e76 <fat32_delete_file+0xb6>
  101e02:	89 85 e8 fb ff ff    	mov    %eax,-0x418(%ebp)
  101e08:	31 f6                	xor    %esi,%esi
  101e0a:	89 8d f0 fb ff ff    	mov    %ecx,-0x410(%ebp)
            if (!ata_read_sectors(current_sector + i, 1, buffer)) {
  101e10:	8b 85 f0 fb ff ff    	mov    -0x410(%ebp),%eax
  101e16:	8d 95 f4 fd ff ff    	lea    -0x20c(%ebp),%edx
  101e1c:	01 f0                	add    %esi,%eax
  101e1e:	89 85 ec fb ff ff    	mov    %eax,-0x414(%ebp)
  101e24:	52                   	push   %edx
  101e25:	6a 01                	push   $0x1
  101e27:	50                   	push   %eax
  101e28:	e8 93 f3 ff ff       	call   1011c0 <ata_read_sectors>
  101e2d:	83 c4 0c             	add    $0xc,%esp
  101e30:	85 c0                	test   %eax,%eax
  101e32:	0f 84 83 00 00 00    	je     101ebb <fat32_delete_file+0xfb>
  101e38:	8d bd f4 fd ff ff    	lea    -0x20c(%ebp),%edi
  101e3e:	66 90                	xchg   %ax,%ax
                return false;
            }

            entry = (fat32_dir_entry_t*)buffer;
            for (uint32_t j = 0; j < 16; j++) {
                if (entry[j].name[0] != 0x00 && entry[j].name[0] != 0xE5) {
  101e40:	0f b6 07             	movzbl (%edi),%eax
  101e43:	84 c0                	test   %al,%al
  101e45:	74 14                	je     101e5b <fat32_delete_file+0x9b>
  101e47:	3c e5                	cmp    $0xe5,%al
  101e49:	74 10                	je     101e5b <fat32_delete_file+0x9b>
                    if (memcmp(entry[j].name, name, 11) == 0) {
  101e4b:	6a 0b                	push   $0xb
  101e4d:	53                   	push   %ebx
  101e4e:	57                   	push   %edi
  101e4f:	e8 5c 12 00 00       	call   1030b0 <memcmp>
  101e54:	83 c4 0c             	add    $0xc,%esp
  101e57:	85 c0                	test   %eax,%eax
  101e59:	74 6d                	je     101ec8 <fat32_delete_file+0x108>
            for (uint32_t j = 0; j < 16; j++) {
  101e5b:	83 c7 20             	add    $0x20,%edi
  101e5e:	8d 45 f4             	lea    -0xc(%ebp),%eax
  101e61:	39 f8                	cmp    %edi,%eax
  101e63:	75 db                	jne    101e40 <fat32_delete_file+0x80>
        for (uint32_t i = 0; i < sectors_per_cluster; i++) {
  101e65:	83 c6 01             	add    $0x1,%esi
  101e68:	3b 35 b0 7b 10 00    	cmp    0x107bb0,%esi
  101e6e:	72 a0                	jb     101e10 <fat32_delete_file+0x50>
  101e70:	8b 85 e8 fb ff ff    	mov    -0x418(%ebp),%eax
    uint32_t fat_sector = fat_begin_lba + ((cluster * 4) / 512);
  101e76:	8d 34 85 00 00 00 00 	lea    0x0(,%eax,4),%esi
    if (!ata_read_sectors(fat_sector, 1, buffer)) {
  101e7d:	8d 85 f4 fb ff ff    	lea    -0x40c(%ebp),%eax
  101e83:	50                   	push   %eax
    uint32_t fat_sector = fat_begin_lba + ((cluster * 4) / 512);
  101e84:	89 f0                	mov    %esi,%eax
    if (!ata_read_sectors(fat_sector, 1, buffer)) {
  101e86:	6a 01                	push   $0x1
    uint32_t fat_sector = fat_begin_lba + ((cluster * 4) / 512);
  101e88:	c1 e8 09             	shr    $0x9,%eax
  101e8b:	03 05 b8 7b 10 00    	add    0x107bb8,%eax
    if (!ata_read_sectors(fat_sector, 1, buffer)) {
  101e91:	50                   	push   %eax
  101e92:	e8 29 f3 ff ff       	call   1011c0 <ata_read_sectors>
  101e97:	83 c4 0c             	add    $0xc,%esp
  101e9a:	85 c0                	test   %eax,%eax
  101e9c:	74 54                	je     101ef2 <fat32_delete_file+0x132>
    return buffer[offset/4] & 0x0FFFFFFF;
  101e9e:	81 e6 fc 01 00 00    	and    $0x1fc,%esi
  101ea4:	8b 84 2e f4 fb ff ff 	mov    -0x40c(%esi,%ebp,1),%eax
  101eab:	25 ff ff ff 0f       	and    $0xfffffff,%eax
    while (current_cluster < 0x0FFFFFF8) {
  101eb0:	3d f7 ff ff 0f       	cmp    $0xffffff7,%eax
  101eb5:	0f 86 31 ff ff ff    	jbe    101dec <fat32_delete_file+0x2c>
            }
        }
        current_cluster = fat32_get_next_cluster(current_cluster);
    }
    return false;
}
  101ebb:	8d 65 f4             	lea    -0xc(%ebp),%esp
    if (!is_initialized) return false;
  101ebe:	31 c0                	xor    %eax,%eax
}
  101ec0:	5b                   	pop    %ebx
  101ec1:	5e                   	pop    %esi
  101ec2:	5f                   	pop    %edi
  101ec3:	5d                   	pop    %ebp
  101ec4:	c3                   	ret
  101ec5:	8d 76 00             	lea    0x0(%esi),%esi
                        if (!ata_write_sectors(current_sector + i, 1, buffer)) {
  101ec8:	8d 85 f4 fd ff ff    	lea    -0x20c(%ebp),%eax
                        entry[j].name[0] = 0xE5;
  101ece:	c6 07 e5             	movb   $0xe5,(%edi)
                        if (!ata_write_sectors(current_sector + i, 1, buffer)) {
  101ed1:	50                   	push   %eax
  101ed2:	6a 01                	push   $0x1
  101ed4:	ff b5 ec fb ff ff    	push   -0x414(%ebp)
  101eda:	e8 41 f4 ff ff       	call   101320 <ata_write_sectors>
  101edf:	83 c4 0c             	add    $0xc,%esp
  101ee2:	85 c0                	test   %eax,%eax
  101ee4:	0f 95 c0             	setne  %al
}
  101ee7:	8d 65 f4             	lea    -0xc(%ebp),%esp
  101eea:	5b                   	pop    %ebx
                        if (!ata_write_sectors(current_sector + i, 1, buffer)) {
  101eeb:	0f b6 c0             	movzbl %al,%eax
}
  101eee:	5e                   	pop    %esi
  101eef:	5f                   	pop    %edi
  101ef0:	5d                   	pop    %ebp
  101ef1:	c3                   	ret
        return 0x0FFFFFF7;
  101ef2:	b8 f7 ff ff 0f       	mov    $0xffffff7,%eax
  101ef7:	e9 f0 fe ff ff       	jmp    101dec <fat32_delete_file+0x2c>
  101efc:	8d 74 26 00          	lea    0x0(%esi,%eiz,1),%esi

00101f00 <fat32_create_directory>:

bool fat32_create_directory(const char* name) {
    if (!is_initialized) return false;
  101f00:	a1 1c 7c 10 00       	mov    0x107c1c,%eax
  101f05:	85 c0                	test   %eax,%eax
  101f07:	0f 84 33 01 00 00    	je     102040 <fat32_create_directory+0x140>

    uint32_t current_cluster = current_directory.cluster;
  101f0d:	a1 a0 7a 10 00       	mov    0x107aa0,%eax
    uint8_t buffer[512];
    fat32_dir_entry_t* entry;

    while (current_cluster < 0x0FFFFFF8) {
  101f12:	3d f7 ff ff 0f       	cmp    $0xffffff7,%eax
  101f17:	0f 87 23 01 00 00    	ja     102040 <fat32_create_directory+0x140>
bool fat32_create_directory(const char* name) {
  101f1d:	55                   	push   %ebp
  101f1e:	89 e5                	mov    %esp,%ebp
  101f20:	57                   	push   %edi
  101f21:	56                   	push   %esi
  101f22:	53                   	push   %ebx
  101f23:	81 ec 0c 04 00 00    	sub    $0x40c,%esp
    return cluster_begin_lba + ((cluster - 2) * sectors_per_cluster);
  101f29:	8b 15 b0 7b 10 00    	mov    0x107bb0,%edx
  101f2f:	8d 48 fe             	lea    -0x2(%eax),%ecx
  101f32:	0f af ca             	imul   %edx,%ecx
  101f35:	03 0d b4 7b 10 00    	add    0x107bb4,%ecx
        uint32_t current_sector = cluster_to_lba(current_cluster);

        for (uint32_t i = 0; i < sectors_per_cluster; i++) {
  101f3b:	85 d2                	test   %edx,%edx
  101f3d:	74 67                	je     101fa6 <fat32_create_directory+0xa6>
  101f3f:	89 85 e8 fb ff ff    	mov    %eax,-0x418(%ebp)
  101f45:	31 ff                	xor    %edi,%edi
  101f47:	8d b5 f4 fd ff ff    	lea    -0x20c(%ebp),%esi
  101f4d:	89 8d ec fb ff ff    	mov    %ecx,-0x414(%ebp)
            if (!ata_read_sectors(current_sector + i, 1, buffer)) {
  101f53:	8b 85 ec fb ff ff    	mov    -0x414(%ebp),%eax
  101f59:	56                   	push   %esi
  101f5a:	6a 01                	push   $0x1
  101f5c:	8d 14 38             	lea    (%eax,%edi,1),%edx
  101f5f:	52                   	push   %edx
  101f60:	89 95 f0 fb ff ff    	mov    %edx,-0x410(%ebp)
  101f66:	e8 55 f2 ff ff       	call   1011c0 <ata_read_sectors>
  101f6b:	83 c4 0c             	add    $0xc,%esp
  101f6e:	85 c0                	test   %eax,%eax
  101f70:	74 79                	je     101feb <fat32_create_directory+0xeb>
  101f72:	8b 95 f0 fb ff ff    	mov    -0x410(%ebp),%edx
  101f78:	89 f3                	mov    %esi,%ebx
  101f7a:	8d b6 00 00 00 00    	lea    0x0(%esi),%esi
                return false;
            }

            entry = (fat32_dir_entry_t*)buffer;
            for (uint32_t j = 0; j < 16; j++) {
                if (entry[j].name[0] == 0x00 || entry[j].name[0] == 0xE5) {
  101f80:	0f b6 03             	movzbl (%ebx),%eax
  101f83:	84 c0                	test   %al,%al
  101f85:	74 71                	je     101ff8 <fat32_create_directory+0xf8>
  101f87:	3c e5                	cmp    $0xe5,%al
  101f89:	74 6d                	je     101ff8 <fat32_create_directory+0xf8>
            for (uint32_t j = 0; j < 16; j++) {
  101f8b:	83 c3 20             	add    $0x20,%ebx
  101f8e:	8d 45 f4             	lea    -0xc(%ebp),%eax
  101f91:	39 d8                	cmp    %ebx,%eax
  101f93:	75 eb                	jne    101f80 <fat32_create_directory+0x80>
        for (uint32_t i = 0; i < sectors_per_cluster; i++) {
  101f95:	83 c7 01             	add    $0x1,%edi
  101f98:	3b 3d b0 7b 10 00    	cmp    0x107bb0,%edi
  101f9e:	72 b3                	jb     101f53 <fat32_create_directory+0x53>
  101fa0:	8b 85 e8 fb ff ff    	mov    -0x418(%ebp),%eax
    uint32_t fat_sector = fat_begin_lba + ((cluster * 4) / 512);
  101fa6:	8d 1c 85 00 00 00 00 	lea    0x0(,%eax,4),%ebx
    if (!ata_read_sectors(fat_sector, 1, buffer)) {
  101fad:	8d 85 f4 fb ff ff    	lea    -0x40c(%ebp),%eax
  101fb3:	50                   	push   %eax
    uint32_t fat_sector = fat_begin_lba + ((cluster * 4) / 512);
  101fb4:	89 d8                	mov    %ebx,%eax
    if (!ata_read_sectors(fat_sector, 1, buffer)) {
  101fb6:	6a 01                	push   $0x1
    uint32_t fat_sector = fat_begin_lba + ((cluster * 4) / 512);
  101fb8:	c1 e8 09             	shr    $0x9,%eax
  101fbb:	03 05 b8 7b 10 00    	add    0x107bb8,%eax
    if (!ata_read_sectors(fat_sector, 1, buffer)) {
  101fc1:	50                   	push   %eax
  101fc2:	e8 f9 f1 ff ff       	call   1011c0 <ata_read_sectors>
  101fc7:	83 c4 0c             	add    $0xc,%esp
  101fca:	85 c0                	test   %eax,%eax
  101fcc:	74 75                	je     102043 <fat32_create_directory+0x143>
    return buffer[offset/4] & 0x0FFFFFFF;
  101fce:	81 e3 fc 01 00 00    	and    $0x1fc,%ebx
  101fd4:	8b 84 2b f4 fb ff ff 	mov    -0x40c(%ebx,%ebp,1),%eax
  101fdb:	25 ff ff ff 0f       	and    $0xfffffff,%eax
    while (current_cluster < 0x0FFFFFF8) {
  101fe0:	3d f7 ff ff 0f       	cmp    $0xffffff7,%eax
  101fe5:	0f 86 3e ff ff ff    	jbe    101f29 <fat32_create_directory+0x29>
            }
        }
        current_cluster = fat32_get_next_cluster(current_cluster);
    }
    return false;
}
  101feb:	8d 65 f4             	lea    -0xc(%ebp),%esp
    if (!is_initialized) return false;
  101fee:	31 c0                	xor    %eax,%eax
}
  101ff0:	5b                   	pop    %ebx
  101ff1:	5e                   	pop    %esi
  101ff2:	5f                   	pop    %edi
  101ff3:	5d                   	pop    %ebp
  101ff4:	c3                   	ret
  101ff5:	8d 76 00             	lea    0x0(%esi),%esi
                    memset(&entry[j], 0, sizeof(fat32_dir_entry_t));
  101ff8:	6a 20                	push   $0x20
  101ffa:	89 d7                	mov    %edx,%edi
  101ffc:	6a 00                	push   $0x0
  101ffe:	53                   	push   %ebx
  101fff:	e8 2c 10 00 00       	call   103030 <memset>
                    memcpy(entry[j].name, name, 11);
  102004:	6a 0b                	push   $0xb
  102006:	ff 75 08             	push   0x8(%ebp)
  102009:	53                   	push   %ebx
  10200a:	e8 71 10 00 00       	call   103080 <memcpy>
                    entry[j].attributes = ATTR_DIRECTORY;
  10200f:	c6 43 0b 10          	movb   $0x10,0xb(%ebx)
                    entry[j].file_size = 0;
  102013:	c7 43 1c 00 00 00 00 	movl   $0x0,0x1c(%ebx)
                    if (!ata_write_sectors(current_sector + i, 1, buffer)) {
  10201a:	56                   	push   %esi
  10201b:	6a 01                	push   $0x1
  10201d:	57                   	push   %edi
  10201e:	e8 fd f2 ff ff       	call   101320 <ata_write_sectors>
  102023:	83 c4 24             	add    $0x24,%esp
  102026:	85 c0                	test   %eax,%eax
  102028:	0f 95 c0             	setne  %al
}
  10202b:	8d 65 f4             	lea    -0xc(%ebp),%esp
  10202e:	5b                   	pop    %ebx
                    if (!ata_write_sectors(current_sector + i, 1, buffer)) {
  10202f:	0f b6 c0             	movzbl %al,%eax
}
  102032:	5e                   	pop    %esi
  102033:	5f                   	pop    %edi
  102034:	5d                   	pop    %ebp
  102035:	c3                   	ret
  102036:	2e 8d b4 26 00 00 00 	lea    %cs:0x0(%esi,%eiz,1),%esi
  10203d:	00 
  10203e:	66 90                	xchg   %ax,%ax
    if (!is_initialized) return false;
  102040:	31 c0                	xor    %eax,%eax
}
  102042:	c3                   	ret
        return 0x0FFFFFF7;
  102043:	b8 f7 ff ff 0f       	mov    $0xffffff7,%eax
  102048:	e9 dc fe ff ff       	jmp    101f29 <fat32_create_directory+0x29>
  10204d:	8d 76 00             	lea    0x0(%esi),%esi

00102050 <fat32_write_fat_entry>:
        }
    }
    return 0;  // No free clusters
}

bool fat32_write_fat_entry(uint32_t cluster, uint32_t value) {
  102050:	55                   	push   %ebp
  102051:	89 e5                	mov    %esp,%ebp
  102053:	57                   	push   %edi
  102054:	56                   	push   %esi
    uint32_t fat_sector = fat_begin_lba + ((cluster * 4) / 512);
    uint32_t offset = (cluster * 4) % 512;
    uint32_t buffer[128];

    if (!ata_read_sectors(fat_sector, 1, buffer)) {
  102055:	8d b5 f4 fd ff ff    	lea    -0x20c(%ebp),%esi
bool fat32_write_fat_entry(uint32_t cluster, uint32_t value) {
  10205b:	53                   	push   %ebx
  10205c:	81 ec 00 02 00 00    	sub    $0x200,%esp
    uint32_t fat_sector = fat_begin_lba + ((cluster * 4) / 512);
  102062:	8b 45 08             	mov    0x8(%ebp),%eax
  102065:	8d 3c 85 00 00 00 00 	lea    0x0(,%eax,4),%edi
  10206c:	89 fb                	mov    %edi,%ebx
  10206e:	c1 eb 09             	shr    $0x9,%ebx
  102071:	03 1d b8 7b 10 00    	add    0x107bb8,%ebx
    if (!ata_read_sectors(fat_sector, 1, buffer)) {
  102077:	56                   	push   %esi
  102078:	6a 01                	push   $0x1
  10207a:	53                   	push   %ebx
  10207b:	e8 40 f1 ff ff       	call   1011c0 <ata_read_sectors>
  102080:	83 c4 0c             	add    $0xc,%esp
  102083:	85 c0                	test   %eax,%eax
  102085:	74 49                	je     1020d0 <fat32_write_fat_entry+0x80>
        return false;
    }

    buffer[offset/4] = value;
  102087:	8b 45 0c             	mov    0xc(%ebp),%eax
  10208a:	81 e7 fc 01 00 00    	and    $0x1fc,%edi
  102090:	89 84 2f f4 fd ff ff 	mov    %eax,-0x20c(%edi,%ebp,1)

    // Write to all FATs
    for (uint32_t fat = 0; fat < boot_sector.num_fats; fat++) {
  102097:	31 ff                	xor    %edi,%edi
  102099:	80 3d d0 7b 10 00 00 	cmpb   $0x0,0x107bd0
  1020a0:	75 14                	jne    1020b6 <fat32_write_fat_entry+0x66>
  1020a2:	eb 3c                	jmp    1020e0 <fat32_write_fat_entry+0x90>
  1020a4:	8d 74 26 00          	lea    0x0(%esi,%eiz,1),%esi
  1020a8:	0f b6 05 d0 7b 10 00 	movzbl 0x107bd0,%eax
  1020af:	83 c7 01             	add    $0x1,%edi
  1020b2:	39 c7                	cmp    %eax,%edi
  1020b4:	73 2a                	jae    1020e0 <fat32_write_fat_entry+0x90>
        uint32_t current_fat_sector = fat_sector + (fat * boot_sector.fat_size_32);
        if (!ata_write_sectors(current_fat_sector, 1, buffer)) {
  1020b6:	56                   	push   %esi
  1020b7:	6a 01                	push   $0x1
        uint32_t current_fat_sector = fat_sector + (fat * boot_sector.fat_size_32);
  1020b9:	a1 e4 7b 10 00       	mov    0x107be4,%eax
  1020be:	0f af c7             	imul   %edi,%eax
  1020c1:	01 d8                	add    %ebx,%eax
        if (!ata_write_sectors(current_fat_sector, 1, buffer)) {
  1020c3:	50                   	push   %eax
  1020c4:	e8 57 f2 ff ff       	call   101320 <ata_write_sectors>
  1020c9:	83 c4 0c             	add    $0xc,%esp
  1020cc:	85 c0                	test   %eax,%eax
  1020ce:	75 d8                	jne    1020a8 <fat32_write_fat_entry+0x58>
            return false;
        }
    }

    return true;
}
  1020d0:	8d 65 f4             	lea    -0xc(%ebp),%esp
        return false;
  1020d3:	31 c0                	xor    %eax,%eax
}
  1020d5:	5b                   	pop    %ebx
  1020d6:	5e                   	pop    %esi
  1020d7:	5f                   	pop    %edi
  1020d8:	5d                   	pop    %ebp
  1020d9:	c3                   	ret
  1020da:	8d b6 00 00 00 00    	lea    0x0(%esi),%esi
  1020e0:	8d 65 f4             	lea    -0xc(%ebp),%esp
    return true;
  1020e3:	b8 01 00 00 00       	mov    $0x1,%eax
}
  1020e8:	5b                   	pop    %ebx
  1020e9:	5e                   	pop    %esi
  1020ea:	5f                   	pop    %edi
  1020eb:	5d                   	pop    %ebp
  1020ec:	c3                   	ret
  1020ed:	8d 76 00             	lea    0x0(%esi),%esi

001020f0 <fat32_allocate_cluster>:
uint32_t fat32_allocate_cluster(void) {
  1020f0:	55                   	push   %ebp
  1020f1:	89 e5                	mov    %esp,%ebp
  1020f3:	57                   	push   %edi
  1020f4:	56                   	push   %esi
  1020f5:	53                   	push   %ebx
  1020f6:	81 ec 00 02 00 00    	sub    $0x200,%esp
    for (uint32_t fat_sector = 0; fat_sector < boot_sector.fat_size_32; fat_sector++) {
  1020fc:	a1 e4 7b 10 00       	mov    0x107be4,%eax
  102101:	85 c0                	test   %eax,%eax
  102103:	0f 84 7e 00 00 00    	je     102187 <fat32_allocate_cluster+0x97>
  102109:	31 f6                	xor    %esi,%esi
        if (!ata_read_sectors(fat_begin_lba + fat_sector, 1, buffer)) {
  10210b:	8d 85 f4 fd ff ff    	lea    -0x20c(%ebp),%eax
  102111:	50                   	push   %eax
  102112:	6a 01                	push   $0x1
  102114:	a1 b8 7b 10 00       	mov    0x107bb8,%eax
  102119:	01 f0                	add    %esi,%eax
  10211b:	50                   	push   %eax
  10211c:	e8 9f f0 ff ff       	call   1011c0 <ata_read_sectors>
  102121:	83 c4 0c             	add    $0xc,%esp
  102124:	85 c0                	test   %eax,%eax
  102126:	74 5f                	je     102187 <fat32_allocate_cluster+0x97>
  102128:	89 f7                	mov    %esi,%edi
  10212a:	8d 9d f4 fd ff ff    	lea    -0x20c(%ebp),%ebx
  102130:	c1 e7 07             	shl    $0x7,%edi
  102133:	eb 18                	jmp    10214d <fat32_allocate_cluster+0x5d>
  102135:	2e 8d b4 26 00 00 00 	lea    %cs:0x0(%esi,%eiz,1),%esi
  10213c:	00 
  10213d:	8d 76 00             	lea    0x0(%esi),%esi
        for (uint32_t i = 0; i < 128; i++) {
  102140:	83 c3 04             	add    $0x4,%ebx
  102143:	8d 45 f4             	lea    -0xc(%ebp),%eax
  102146:	83 c7 01             	add    $0x1,%edi
  102149:	39 c3                	cmp    %eax,%ebx
  10214b:	74 2b                	je     102178 <fat32_allocate_cluster+0x88>
            if (buffer[i] == 0) {
  10214d:	8b 03                	mov    (%ebx),%eax
  10214f:	85 c0                	test   %eax,%eax
  102151:	75 ed                	jne    102140 <fat32_allocate_cluster+0x50>
                if (cluster >= 2) {  // Clusters 0 and 1 are reserved
  102153:	83 ff 01             	cmp    $0x1,%edi
  102156:	76 e8                	jbe    102140 <fat32_allocate_cluster+0x50>
                    if (fat32_write_fat_entry(cluster, 0x0FFFFFF8)) {
  102158:	68 f8 ff ff 0f       	push   $0xffffff8
  10215d:	57                   	push   %edi
  10215e:	e8 ed fe ff ff       	call   102050 <fat32_write_fat_entry>
  102163:	5a                   	pop    %edx
  102164:	59                   	pop    %ecx
  102165:	85 c0                	test   %eax,%eax
  102167:	74 d7                	je     102140 <fat32_allocate_cluster+0x50>
}
  102169:	8d 65 f4             	lea    -0xc(%ebp),%esp
  10216c:	89 f8                	mov    %edi,%eax
  10216e:	5b                   	pop    %ebx
  10216f:	5e                   	pop    %esi
  102170:	5f                   	pop    %edi
  102171:	5d                   	pop    %ebp
  102172:	c3                   	ret
  102173:	2e 8d 74 26 00       	lea    %cs:0x0(%esi,%eiz,1),%esi
    for (uint32_t fat_sector = 0; fat_sector < boot_sector.fat_size_32; fat_sector++) {
  102178:	83 c6 01             	add    $0x1,%esi
  10217b:	3b 35 e4 7b 10 00    	cmp    0x107be4,%esi
  102181:	0f 82 84 ff ff ff    	jb     10210b <fat32_allocate_cluster+0x1b>
}
  102187:	8d 65 f4             	lea    -0xc(%ebp),%esp
            return 0;
  10218a:	31 ff                	xor    %edi,%edi
}
  10218c:	5b                   	pop    %ebx
  10218d:	89 f8                	mov    %edi,%eax
  10218f:	5e                   	pop    %esi
  102190:	5f                   	pop    %edi
  102191:	5d                   	pop    %ebp
  102192:	c3                   	ret
  102193:	2e 8d b4 26 00 00 00 	lea    %cs:0x0(%esi,%eiz,1),%esi
  10219a:	00 
  10219b:	2e 8d 74 26 00       	lea    %cs:0x0(%esi,%eiz,1),%esi

001021a0 <fat32_write_file>:

bool fat32_write_file(const char* name, const void* data, uint32_t size) {
    if (!is_initialized || !data) return false;
  1021a0:	a1 1c 7c 10 00       	mov    0x107c1c,%eax
  1021a5:	85 c0                	test   %eax,%eax
  1021a7:	0f 84 cf 01 00 00    	je     10237c <fat32_write_file+0x1dc>
bool fat32_write_file(const char* name, const void* data, uint32_t size) {
  1021ad:	55                   	push   %ebp
  1021ae:	89 e5                	mov    %esp,%ebp
  1021b0:	57                   	push   %edi
  1021b1:	56                   	push   %esi
  1021b2:	53                   	push   %ebx
  1021b3:	81 ec 08 04 00 00    	sub    $0x408,%esp
    if (!is_initialized || !data) return false;
  1021b9:	8b 5d 0c             	mov    0xc(%ebp),%ebx
  1021bc:	85 db                	test   %ebx,%ebx
  1021be:	0f 84 dc 00 00 00    	je     1022a0 <fat32_write_file+0x100>

    // First, create the file entry
    uint32_t current_cluster = current_directory.cluster;
  1021c4:	a1 a0 7a 10 00       	mov    0x107aa0,%eax
    uint32_t entry_sector = 0;
    uint32_t entry_offset = 0;
    bool found_slot = false;

    // Find a free directory entry
    while (current_cluster < 0x0FFFFFF8 && !found_slot) {
  1021c9:	3d f7 ff ff 0f       	cmp    $0xffffff7,%eax
  1021ce:	0f 87 cc 00 00 00    	ja     1022a0 <fat32_write_file+0x100>
    return cluster_begin_lba + ((cluster - 2) * sectors_per_cluster);
  1021d4:	8b 15 b0 7b 10 00    	mov    0x107bb0,%edx
  1021da:	8d 48 fe             	lea    -0x2(%eax),%ecx
  1021dd:	0f af ca             	imul   %edx,%ecx
  1021e0:	03 0d b4 7b 10 00    	add    0x107bb4,%ecx
        uint32_t current_sector = cluster_to_lba(current_cluster);

        for (uint32_t i = 0; i < sectors_per_cluster && !found_slot; i++) {
  1021e6:	85 d2                	test   %edx,%edx
  1021e8:	74 6c                	je     102256 <fat32_write_file+0xb6>
  1021ea:	89 8d f0 fb ff ff    	mov    %ecx,-0x410(%ebp)
  1021f0:	31 ff                	xor    %edi,%edi
  1021f2:	89 85 ec fb ff ff    	mov    %eax,-0x414(%ebp)
  1021f8:	2e 8d b4 26 00 00 00 	lea    %cs:0x0(%esi,%eiz,1),%esi
  1021ff:	00 
            if (!ata_read_sectors(current_sector + i, 1, dir_buffer)) {
  102200:	8b 85 f0 fb ff ff    	mov    -0x410(%ebp),%eax
  102206:	8d 34 38             	lea    (%eax,%edi,1),%esi
  102209:	8d 85 f4 fd ff ff    	lea    -0x20c(%ebp),%eax
  10220f:	50                   	push   %eax
  102210:	6a 01                	push   $0x1
  102212:	56                   	push   %esi
  102213:	e8 a8 ef ff ff       	call   1011c0 <ata_read_sectors>
  102218:	83 c4 0c             	add    $0xc,%esp
  10221b:	85 c0                	test   %eax,%eax
  10221d:	0f 84 7d 00 00 00    	je     1022a0 <fat32_write_file+0x100>
  102223:	8d 9d f4 fd ff ff    	lea    -0x20c(%ebp),%ebx
  102229:	8d b4 26 00 00 00 00 	lea    0x0(%esi,%eiz,1),%esi
                return false;
            }

            entry = (fat32_dir_entry_t*)dir_buffer;
            for (uint32_t j = 0; j < 16; j++) {
                if (entry[j].name[0] == 0x00 || entry[j].name[0] == 0xE5) {
  102230:	0f b6 03             	movzbl (%ebx),%eax
  102233:	84 c0                	test   %al,%al
  102235:	74 79                	je     1022b0 <fat32_write_file+0x110>
  102237:	3c e5                	cmp    $0xe5,%al
  102239:	74 75                	je     1022b0 <fat32_write_file+0x110>
            for (uint32_t j = 0; j < 16; j++) {
  10223b:	83 c3 20             	add    $0x20,%ebx
  10223e:	8d 45 f4             	lea    -0xc(%ebp),%eax
  102241:	39 d8                	cmp    %ebx,%eax
  102243:	75 eb                	jne    102230 <fat32_write_file+0x90>
        for (uint32_t i = 0; i < sectors_per_cluster && !found_slot; i++) {
  102245:	83 c7 01             	add    $0x1,%edi
  102248:	3b 3d b0 7b 10 00    	cmp    0x107bb0,%edi
  10224e:	72 b0                	jb     102200 <fat32_write_file+0x60>
  102250:	8b 85 ec fb ff ff    	mov    -0x414(%ebp),%eax
    uint32_t fat_sector = fat_begin_lba + ((cluster * 4) / 512);
  102256:	8d 1c 85 00 00 00 00 	lea    0x0(,%eax,4),%ebx
    if (!ata_read_sectors(fat_sector, 1, buffer)) {
  10225d:	8d 85 f4 fb ff ff    	lea    -0x40c(%ebp),%eax
  102263:	50                   	push   %eax
    uint32_t fat_sector = fat_begin_lba + ((cluster * 4) / 512);
  102264:	89 d8                	mov    %ebx,%eax
    if (!ata_read_sectors(fat_sector, 1, buffer)) {
  102266:	6a 01                	push   $0x1
    uint32_t fat_sector = fat_begin_lba + ((cluster * 4) / 512);
  102268:	c1 e8 09             	shr    $0x9,%eax
  10226b:	03 05 b8 7b 10 00    	add    0x107bb8,%eax
    if (!ata_read_sectors(fat_sector, 1, buffer)) {
  102271:	50                   	push   %eax
  102272:	e8 49 ef ff ff       	call   1011c0 <ata_read_sectors>
  102277:	83 c4 0c             	add    $0xc,%esp
  10227a:	85 c0                	test   %eax,%eax
  10227c:	0f 84 fd 00 00 00    	je     10237f <fat32_write_file+0x1df>
    return buffer[offset/4] & 0x0FFFFFFF;
  102282:	89 d8                	mov    %ebx,%eax
  102284:	25 fc 01 00 00       	and    $0x1fc,%eax
  102289:	8b 84 28 f4 fb ff ff 	mov    -0x40c(%eax,%ebp,1),%eax
  102290:	25 ff ff ff 0f       	and    $0xfffffff,%eax
    while (current_cluster < 0x0FFFFFF8 && !found_slot) {
  102295:	3d f7 ff ff 0f       	cmp    $0xffffff7,%eax
  10229a:	0f 86 34 ff ff ff    	jbe    1021d4 <fat32_write_file+0x34>
            current_data_cluster = next_cluster;
        }
    }

    return true;
}
  1022a0:	8d 65 f4             	lea    -0xc(%ebp),%esp
    if (!is_initialized || !data) return false;
  1022a3:	31 c0                	xor    %eax,%eax
}
  1022a5:	5b                   	pop    %ebx
  1022a6:	5e                   	pop    %esi
  1022a7:	5f                   	pop    %edi
  1022a8:	5d                   	pop    %ebp
  1022a9:	c3                   	ret
  1022aa:	8d b6 00 00 00 00    	lea    0x0(%esi),%esi
    uint32_t first_cluster = fat32_allocate_cluster();
  1022b0:	e8 3b fe ff ff       	call   1020f0 <fat32_allocate_cluster>
  1022b5:	89 f7                	mov    %esi,%edi
  1022b7:	89 c2                	mov    %eax,%edx
    if (!first_cluster) return false;
  1022b9:	85 c0                	test   %eax,%eax
  1022bb:	74 e3                	je     1022a0 <fat32_write_file+0x100>
  1022bd:	89 95 f0 fb ff ff    	mov    %edx,-0x410(%ebp)
    memset(entry, 0, sizeof(fat32_dir_entry_t));
  1022c3:	6a 20                	push   $0x20
  1022c5:	6a 00                	push   $0x0
  1022c7:	53                   	push   %ebx
  1022c8:	e8 63 0d 00 00       	call   103030 <memset>
    memcpy(entry->name, name, 11);
  1022cd:	6a 0b                	push   $0xb
  1022cf:	ff 75 08             	push   0x8(%ebp)
  1022d2:	53                   	push   %ebx
  1022d3:	e8 a8 0d 00 00       	call   103080 <memcpy>
    entry->first_cluster_high = (uint16_t)(first_cluster >> 16);
  1022d8:	8b 95 f0 fb ff ff    	mov    -0x410(%ebp),%edx
    entry->attributes = 0x20;  // Archive bit
  1022de:	c6 43 0b 20          	movb   $0x20,0xb(%ebx)
    entry->first_cluster_high = (uint16_t)(first_cluster >> 16);
  1022e2:	89 d0                	mov    %edx,%eax
    entry->first_cluster_low = (uint16_t)(first_cluster & 0xFFFF);
  1022e4:	66 89 53 1a          	mov    %dx,0x1a(%ebx)
    entry->first_cluster_high = (uint16_t)(first_cluster >> 16);
  1022e8:	c1 e8 10             	shr    $0x10,%eax
  1022eb:	66 89 43 14          	mov    %ax,0x14(%ebx)
    entry->file_size = size;
  1022ef:	8b 45 10             	mov    0x10(%ebp),%eax
  1022f2:	89 43 1c             	mov    %eax,0x1c(%ebx)
    if (!ata_write_sectors(entry_sector, 1, dir_buffer)) {
  1022f5:	8d 85 f4 fd ff ff    	lea    -0x20c(%ebp),%eax
  1022fb:	50                   	push   %eax
  1022fc:	6a 01                	push   $0x1
  1022fe:	57                   	push   %edi
  1022ff:	e8 1c f0 ff ff       	call   101320 <ata_write_sectors>
  102304:	83 c4 24             	add    $0x24,%esp
  102307:	85 c0                	test   %eax,%eax
  102309:	74 95                	je     1022a0 <fat32_write_file+0x100>
    while (bytes_written < size) {
  10230b:	8b 45 10             	mov    0x10(%ebp),%eax
    uint32_t bytes_written = 0;
  10230e:	31 ff                	xor    %edi,%edi
    while (bytes_written < size) {
  102310:	8b 95 f0 fb ff ff    	mov    -0x410(%ebp),%edx
  102316:	85 c0                	test   %eax,%eax
  102318:	8d b0 ff 01 00 00    	lea    0x1ff(%eax),%esi
  10231e:	74 4f                	je     10236f <fat32_write_file+0x1cf>
  102320:	89 b5 f0 fb ff ff    	mov    %esi,-0x410(%ebp)
  102326:	89 d6                	mov    %edx,%esi
        uint32_t sectors_to_write = (bytes_to_write + 511) / 512;
  102328:	8b 9d f0 fb ff ff    	mov    -0x410(%ebp),%ebx
    return cluster_begin_lba + ((cluster - 2) * sectors_per_cluster);
  10232e:	8b 0d b0 7b 10 00    	mov    0x107bb0,%ecx
        if (!ata_write_sectors(data_sector, sectors_to_write, (uint8_t*)data + bytes_written)) {
  102334:	8b 45 0c             	mov    0xc(%ebp),%eax
        uint32_t sectors_to_write = (bytes_to_write + 511) / 512;
  102337:	29 fb                	sub    %edi,%ebx
  102339:	c1 eb 09             	shr    $0x9,%ebx
        if (sectors_to_write > sectors_per_cluster) {
  10233c:	39 cb                	cmp    %ecx,%ebx
  10233e:	0f 47 d9             	cmova  %ecx,%ebx
        if (!ata_write_sectors(data_sector, sectors_to_write, (uint8_t*)data + bytes_written)) {
  102341:	01 f8                	add    %edi,%eax
  102343:	50                   	push   %eax
  102344:	0f b6 c3             	movzbl %bl,%eax
  102347:	50                   	push   %eax
    return cluster_begin_lba + ((cluster - 2) * sectors_per_cluster);
  102348:	8d 46 fe             	lea    -0x2(%esi),%eax
  10234b:	0f af c1             	imul   %ecx,%eax
  10234e:	03 05 b4 7b 10 00    	add    0x107bb4,%eax
        if (!ata_write_sectors(data_sector, sectors_to_write, (uint8_t*)data + bytes_written)) {
  102354:	50                   	push   %eax
  102355:	e8 c6 ef ff ff       	call   101320 <ata_write_sectors>
  10235a:	83 c4 0c             	add    $0xc,%esp
  10235d:	85 c0                	test   %eax,%eax
  10235f:	0f 84 3b ff ff ff    	je     1022a0 <fat32_write_file+0x100>
        bytes_written += sectors_to_write * 512;
  102365:	c1 e3 09             	shl    $0x9,%ebx
  102368:	01 df                	add    %ebx,%edi
        if (bytes_written < size) {
  10236a:	3b 7d 10             	cmp    0x10(%ebp),%edi
  10236d:	72 1a                	jb     102389 <fat32_write_file+0x1e9>
}
  10236f:	8d 65 f4             	lea    -0xc(%ebp),%esp
    return true;
  102372:	b8 01 00 00 00       	mov    $0x1,%eax
}
  102377:	5b                   	pop    %ebx
  102378:	5e                   	pop    %esi
  102379:	5f                   	pop    %edi
  10237a:	5d                   	pop    %ebp
  10237b:	c3                   	ret
    if (!is_initialized || !data) return false;
  10237c:	31 c0                	xor    %eax,%eax
}
  10237e:	c3                   	ret
        return 0x0FFFFFF7;
  10237f:	b8 f7 ff ff 0f       	mov    $0xffffff7,%eax
  102384:	e9 4b fe ff ff       	jmp    1021d4 <fat32_write_file+0x34>
            uint32_t next_cluster = fat32_allocate_cluster();
  102389:	e8 62 fd ff ff       	call   1020f0 <fat32_allocate_cluster>
  10238e:	89 c3                	mov    %eax,%ebx
            if (!next_cluster) return false;
  102390:	85 c0                	test   %eax,%eax
  102392:	0f 84 08 ff ff ff    	je     1022a0 <fat32_write_file+0x100>
            if (!fat32_write_fat_entry(current_data_cluster, next_cluster)) {
  102398:	50                   	push   %eax
  102399:	56                   	push   %esi
  10239a:	e8 b1 fc ff ff       	call   102050 <fat32_write_fat_entry>
  10239f:	5a                   	pop    %edx
  1023a0:	59                   	pop    %ecx
  1023a1:	85 c0                	test   %eax,%eax
  1023a3:	0f 84 f7 fe ff ff    	je     1022a0 <fat32_write_file+0x100>
  1023a9:	89 de                	mov    %ebx,%esi
  1023ab:	e9 78 ff ff ff       	jmp    102328 <fat32_write_file+0x188>

001023b0 <fat32_read_file>:

bool fat32_read_file(const char* name, void* buffer, uint32_t* size) {
  1023b0:	55                   	push   %ebp
  1023b1:	89 e5                	mov    %esp,%ebp
  1023b3:	57                   	push   %edi
  1023b4:	56                   	push   %esi
  1023b5:	53                   	push   %ebx
  1023b6:	81 ec 38 04 00 00    	sub    $0x438,%esp
    if (!is_initialized || !buffer || !size) {
  1023bc:	a1 1c 7c 10 00       	mov    0x107c1c,%eax
bool fat32_read_file(const char* name, void* buffer, uint32_t* size) {
  1023c1:	8b 5d 10             	mov    0x10(%ebp),%ebx
    if (!is_initialized || !buffer || !size) {
  1023c4:	85 c0                	test   %eax,%eax
  1023c6:	0f 84 b8 03 00 00    	je     102784 <fat32_read_file+0x3d4>
  1023cc:	8b 45 0c             	mov    0xc(%ebp),%eax
  1023cf:	85 c0                	test   %eax,%eax
  1023d1:	0f 84 ad 03 00 00    	je     102784 <fat32_read_file+0x3d4>
  1023d7:	85 db                	test   %ebx,%ebx
  1023d9:	0f 84 a5 03 00 00    	je     102784 <fat32_read_file+0x3d4>
        if (debug) vga_writestr("[FAT32] Invalid parameters\n");
        return false;
    }

    uint32_t current_cluster = current_directory.cluster;
  1023df:	8b 15 a0 7a 10 00    	mov    0x107aa0,%edx
    uint8_t dir_buffer[512];
    fat32_dir_entry_t* entry = NULL;
    bool found = false;

    // Find the file entry
    while (current_cluster < 0x0FFFFFF8 && !found) {
  1023e5:	81 fa f7 ff ff 0f    	cmp    $0xffffff7,%edx
  1023eb:	0f 87 93 03 00 00    	ja     102784 <fat32_read_file+0x3d4>
    return cluster_begin_lba + ((cluster - 2) * sectors_per_cluster);
  1023f1:	a1 b0 7b 10 00       	mov    0x107bb0,%eax
  1023f6:	8d 4a fe             	lea    -0x2(%edx),%ecx
        uint32_t current_sector = cluster_to_lba(current_cluster);
        
        for (uint32_t i = 0; i < sectors_per_cluster && !found; i++) {
  1023f9:	31 f6                	xor    %esi,%esi
    return cluster_begin_lba + ((cluster - 2) * sectors_per_cluster);
  1023fb:	0f af c8             	imul   %eax,%ecx
  1023fe:	03 0d b4 7b 10 00    	add    0x107bb4,%ecx
  102404:	89 8d c8 fb ff ff    	mov    %ecx,-0x438(%ebp)
        for (uint32_t i = 0; i < sectors_per_cluster && !found; i++) {
  10240a:	85 c0                	test   %eax,%eax
  10240c:	0f 84 a7 03 00 00    	je     1027b9 <fat32_read_file+0x409>
  102412:	89 95 c4 fb ff ff    	mov    %edx,-0x43c(%ebp)
  102418:	2e 8d b4 26 00 00 00 	lea    %cs:0x0(%esi,%eiz,1),%esi
  10241f:	00 
            if (!ata_read_sectors(current_sector + i, 1, dir_buffer)) {
  102420:	8d 85 f4 fd ff ff    	lea    -0x20c(%ebp),%eax
  102426:	50                   	push   %eax
  102427:	8b 85 c8 fb ff ff    	mov    -0x438(%ebp),%eax
  10242d:	6a 01                	push   $0x1
  10242f:	01 f0                	add    %esi,%eax
  102431:	50                   	push   %eax
  102432:	e8 89 ed ff ff       	call   1011c0 <ata_read_sectors>
  102437:	83 c4 0c             	add    $0xc,%esp
  10243a:	85 c0                	test   %eax,%eax
  10243c:	0f 84 42 03 00 00    	je     102784 <fat32_read_file+0x3d4>
  102442:	89 b5 cc fb ff ff    	mov    %esi,-0x434(%ebp)
  102448:	8d bd f4 fd ff ff    	lea    -0x20c(%ebp),%edi
  10244e:	66 90                	xchg   %ax,%ax
                return false;
            }

            entry = (fat32_dir_entry_t*)dir_buffer;
            for (uint32_t j = 0; j < 16; j++) {
                if (entry[j].name[0] != 0x00 && entry[j].name[0] != 0xE5) {
  102450:	0f b6 07             	movzbl (%edi),%eax
  102453:	84 c0                	test   %al,%al
  102455:	0f 84 35 03 00 00    	je     102790 <fat32_read_file+0x3e0>
  10245b:	3c e5                	cmp    $0xe5,%al
  10245d:	0f 84 2d 03 00 00    	je     102790 <fat32_read_file+0x3e0>
  102463:	31 d2                	xor    %edx,%edx
  102465:	2e 8d b4 26 00 00 00 	lea    %cs:0x0(%esi,%eiz,1),%esi
  10246c:	00 
  10246d:	8d 76 00             	lea    0x0(%esi),%esi
    while (dst < 8 && entry_name[src] && entry_name[src] != '.') {
  102470:	0f b6 04 17          	movzbl (%edi,%edx,1),%eax
  102474:	84 c0                	test   %al,%al
  102476:	0f 84 94 03 00 00    	je     102810 <fat32_read_file+0x460>
  10247c:	3c 2e                	cmp    $0x2e,%al
  10247e:	0f 84 8c 03 00 00    	je     102810 <fat32_read_file+0x460>
        if (c >= 'a' && c <= 'z') {
  102484:	8d 58 9f             	lea    -0x61(%eax),%ebx
        char c = entry_name[src++];
  102487:	83 c2 01             	add    $0x1,%edx
            c = c - 'a' + 'A';
  10248a:	8d 48 e0             	lea    -0x20(%eax),%ecx
  10248d:	80 fb 1a             	cmp    $0x1a,%bl
  102490:	0f 42 c1             	cmovb  %ecx,%eax
        normalized[dst++] = c;
  102493:	88 84 15 f3 fb ff ff 	mov    %al,-0x40d(%ebp,%edx,1)
    while (dst < 8 && entry_name[src] && entry_name[src] != '.') {
  10249a:	83 fa 08             	cmp    $0x8,%edx
  10249d:	75 d1                	jne    102470 <fat32_read_file+0xc0>
    if (entry_name[src] == '.') {
  10249f:	0f b6 47 08          	movzbl 0x8(%edi),%eax
    while (dst < 8) {
  1024a3:	8d 8d f4 fb ff ff    	lea    -0x40c(%ebp),%ecx
        src++;
  1024a9:	3c 2e                	cmp    $0x2e,%al
  1024ab:	89 bd d0 fb ff ff    	mov    %edi,-0x430(%ebp)
  1024b1:	0f 94 c0             	sete   %al
  1024b4:	0f b6 c0             	movzbl %al,%eax
  1024b7:	01 c2                	add    %eax,%edx
    while (dst < 11 && entry_name[src]) {
  1024b9:	b8 08 00 00 00       	mov    $0x8,%eax
  1024be:	8d 34 17             	lea    (%edi,%edx,1),%esi
  1024c1:	89 cf                	mov    %ecx,%edi
  1024c3:	0f b6 54 06 f8       	movzbl -0x8(%esi,%eax,1),%edx
  1024c8:	84 d2                	test   %dl,%dl
  1024ca:	0f 84 88 03 00 00    	je     102858 <fat32_read_file+0x4a8>
        if (c >= 'a' && c <= 'z') {
  1024d0:	8d 4a 9f             	lea    -0x61(%edx),%ecx
            c = c - 'a' + 'A';
  1024d3:	8d 5a e0             	lea    -0x20(%edx),%ebx
  1024d6:	80 f9 1a             	cmp    $0x1a,%cl
  1024d9:	0f 42 d3             	cmovb  %ebx,%edx
        normalized[dst++] = c;
  1024dc:	83 c0 01             	add    $0x1,%eax
  1024df:	88 94 05 f3 fb ff ff 	mov    %dl,-0x40d(%ebp,%eax,1)
    while (dst < 11 && entry_name[src]) {
  1024e6:	83 f8 0b             	cmp    $0xb,%eax
  1024e9:	75 d8                	jne    1024c3 <fat32_read_file+0x113>
  1024eb:	89 f9                	mov    %edi,%ecx
  1024ed:	8b bd d0 fb ff ff    	mov    -0x430(%ebp),%edi
    for (int i = 0; i < 11; i++) {
  1024f3:	8b 55 08             	mov    0x8(%ebp),%edx
  1024f6:	31 c0                	xor    %eax,%eax
  1024f8:	2e 8d b4 26 00 00 00 	lea    %cs:0x0(%esi,%eiz,1),%esi
  1024ff:	00 
        if (normalized[i] != fat_name[i]) {
  102500:	0f b6 1c 02          	movzbl (%edx,%eax,1),%ebx
  102504:	38 1c 01             	cmp    %bl,(%ecx,%eax,1)
  102507:	0f 85 83 02 00 00    	jne    102790 <fat32_read_file+0x3e0>
    for (int i = 0; i < 11; i++) {
  10250d:	83 c0 01             	add    $0x1,%eax
  102510:	83 f8 0b             	cmp    $0xb,%eax
  102513:	75 eb                	jne    102500 <fat32_read_file+0x150>
  102515:	89 8d d0 fb ff ff    	mov    %ecx,-0x430(%ebp)
        if (debug) vga_writestr("[FAT32] File not found\n");
        return false;
    }

    // Display file information
    vga_writestr("[FAT32] File found! Size: ");
  10251b:	8b 5d 10             	mov    0x10(%ebp),%ebx
    char size_str[32];
    uint32_t_to_str(entry->file_size, size_str);
  10251e:	8d b5 d4 fb ff ff    	lea    -0x42c(%ebp),%esi
    vga_writestr("[FAT32] File found! Size: ");
  102524:	68 f0 44 10 00       	push   $0x1044f0
  102529:	e8 c2 08 00 00       	call   102df0 <vga_writestr>
    uint32_t_to_str(entry->file_size, size_str);
  10252e:	56                   	push   %esi
  10252f:	ff 77 1c             	push   0x1c(%edi)
  102532:	e8 09 0a 00 00       	call   102f40 <uint32_t_to_str>
    vga_writestr(size_str);
  102537:	56                   	push   %esi
  102538:	e8 b3 08 00 00       	call   102df0 <vga_writestr>
    vga_writestr(" bytes\n");
  10253d:	68 e8 44 10 00       	push   $0x1044e8
  102542:	e8 a9 08 00 00       	call   102df0 <vga_writestr>

    vga_writestr("[FAT32] First cluster: 0x");
  102547:	68 0b 45 10 00       	push   $0x10450b
  10254c:	e8 9f 08 00 00       	call   102df0 <vga_writestr>
    uint32_t first_cluster = ((uint32_t)entry->first_cluster_high << 16) | entry->first_cluster_low;
  102551:	0f b7 47 14          	movzwl 0x14(%edi),%eax
  102555:	0f b7 57 1a          	movzwl 0x1a(%edi),%edx
  102559:	83 c4 18             	add    $0x18,%esp
  10255c:	b9 1c 00 00 00       	mov    $0x1c,%ecx
  102561:	c1 e0 10             	shl    $0x10,%eax
  102564:	09 c2                	or     %eax,%edx
    for (int i = 7; i >= 0; i--) {
        char hex = "0123456789ABCDEF"[(first_cluster >> (i * 4)) & 0xF];
  102566:	89 d0                	mov    %edx,%eax
  102568:	89 95 c8 fb ff ff    	mov    %edx,-0x438(%ebp)
  10256e:	d3 e8                	shr    %cl,%eax
  102570:	89 8d cc fb ff ff    	mov    %ecx,-0x434(%ebp)
  102576:	83 e0 0f             	and    $0xf,%eax
        char str[2] = {hex, 0};
  102579:	c6 85 f5 fb ff ff 00 	movb   $0x0,-0x40b(%ebp)
  102580:	0f b6 80 43 41 10 00 	movzbl 0x104143(%eax),%eax
  102587:	88 85 f4 fb ff ff    	mov    %al,-0x40c(%ebp)
        vga_writestr(str);
  10258d:	ff b5 d0 fb ff ff    	push   -0x430(%ebp)
  102593:	e8 58 08 00 00       	call   102df0 <vga_writestr>
    for (int i = 7; i >= 0; i--) {
  102598:	8b 8d cc fb ff ff    	mov    -0x434(%ebp),%ecx
  10259e:	8b 95 c8 fb ff ff    	mov    -0x438(%ebp),%edx
  1025a4:	58                   	pop    %eax
  1025a5:	83 e9 04             	sub    $0x4,%ecx
  1025a8:	83 f9 fc             	cmp    $0xfffffffc,%ecx
  1025ab:	75 b9                	jne    102566 <fat32_read_file+0x1b6>
    }
    vga_writestr("\n");
  1025ad:	89 95 cc fb ff ff    	mov    %edx,-0x434(%ebp)
  1025b3:	68 0a 44 10 00       	push   $0x10440a
  1025b8:	e8 33 08 00 00       	call   102df0 <vga_writestr>

    // Check buffer size
    if (*size < entry->file_size) {
  1025bd:	8b 47 1c             	mov    0x1c(%edi),%eax
  1025c0:	39 03                	cmp    %eax,(%ebx)
  1025c2:	5a                   	pop    %edx
  1025c3:	8b 95 cc fb ff ff    	mov    -0x434(%ebp),%edx
  1025c9:	0f 82 c1 02 00 00    	jb     102890 <fat32_read_file+0x4e0>
    // Read file data
    *size = entry->file_size;
    uint32_t bytes_read = 0;
    uint32_t current_data_cluster = first_cluster;

    while (bytes_read < entry->file_size && current_data_cluster < 0x0FFFFFF8) {
  1025cf:	85 c0                	test   %eax,%eax
    *size = entry->file_size;
  1025d1:	89 03                	mov    %eax,(%ebx)
    uint32_t bytes_read = 0;
  1025d3:	c7 85 cc fb ff ff 00 	movl   $0x0,-0x434(%ebp)
  1025da:	00 00 00 
    while (bytes_read < entry->file_size && current_data_cluster < 0x0FFFFFF8) {
  1025dd:	0f 95 c1             	setne  %cl
  1025e0:	81 fa f7 ff ff 0f    	cmp    $0xffffff7,%edx
  1025e6:	0f 96 c0             	setbe  %al
  1025e9:	20 c1                	and    %al,%cl
  1025eb:	88 8d c4 fb ff ff    	mov    %cl,-0x43c(%ebp)
  1025f1:	0f 84 52 01 00 00    	je     102749 <fat32_read_file+0x399>
    uint32_t bytes_read = 0;
  1025f7:	89 bd c8 fb ff ff    	mov    %edi,-0x438(%ebp)
    return cluster_begin_lba + ((cluster - 2) * sectors_per_cluster);
  1025fd:	89 95 c0 fb ff ff    	mov    %edx,-0x440(%ebp)
  102603:	8d 5a fe             	lea    -0x2(%edx),%ebx
        uint32_t data_sector = cluster_to_lba(current_data_cluster);
        vga_writestr("[FAT32] Reading sector 0x");
  102606:	bf 1c 00 00 00       	mov    $0x1c,%edi
    return cluster_begin_lba + ((cluster - 2) * sectors_per_cluster);
  10260b:	0f af 1d b0 7b 10 00 	imul   0x107bb0,%ebx
  102612:	03 1d b4 7b 10 00    	add    0x107bb4,%ebx
        vga_writestr("[FAT32] Reading sector 0x");
  102618:	68 98 44 10 00       	push   $0x104498
  10261d:	e8 ce 07 00 00       	call   102df0 <vga_writestr>
  102622:	59                   	pop    %ecx
        for (int i = 7; i >= 0; i--) {
            char hex = "0123456789ABCDEF"[(data_sector >> (i * 4)) & 0xF];
  102623:	89 f9                	mov    %edi,%ecx
  102625:	89 d8                	mov    %ebx,%eax
            char str[2] = {hex, 0};
  102627:	c6 85 f5 fb ff ff 00 	movb   $0x0,-0x40b(%ebp)
        for (int i = 7; i >= 0; i--) {
  10262e:	83 ef 04             	sub    $0x4,%edi
            char hex = "0123456789ABCDEF"[(data_sector >> (i * 4)) & 0xF];
  102631:	d3 e8                	shr    %cl,%eax
  102633:	83 e0 0f             	and    $0xf,%eax
            char str[2] = {hex, 0};
  102636:	0f b6 80 43 41 10 00 	movzbl 0x104143(%eax),%eax
  10263d:	88 85 f4 fb ff ff    	mov    %al,-0x40c(%ebp)
            vga_writestr(str);
  102643:	ff b5 d0 fb ff ff    	push   -0x430(%ebp)
  102649:	e8 a2 07 00 00       	call   102df0 <vga_writestr>
        for (int i = 7; i >= 0; i--) {
  10264e:	5a                   	pop    %edx
  10264f:	83 ff fc             	cmp    $0xfffffffc,%edi
  102652:	75 cf                	jne    102623 <fat32_read_file+0x273>
        }
        vga_writestr("\n");
  102654:	8b 95 c0 fb ff ff    	mov    -0x440(%ebp),%edx
  10265a:	89 95 bc fb ff ff    	mov    %edx,-0x444(%ebp)
  102660:	68 0a 44 10 00       	push   $0x10440a
  102665:	e8 86 07 00 00       	call   102df0 <vga_writestr>

        // Calculate how much to read
        uint32_t bytes_to_read = entry->file_size - bytes_read;
        uint32_t sectors_to_read = (bytes_to_read + 511) / 512;
  10266a:	8b 85 c8 fb ff ff    	mov    -0x438(%ebp),%eax
  102670:	8b bd cc fb ff ff    	mov    -0x434(%ebp),%edi
        if (sectors_to_read > sectors_per_cluster) {
  102676:	8b 0d b0 7b 10 00    	mov    0x107bb0,%ecx
        uint32_t sectors_to_read = (bytes_to_read + 511) / 512;
  10267c:	8b 40 1c             	mov    0x1c(%eax),%eax
  10267f:	89 85 c0 fb ff ff    	mov    %eax,-0x440(%ebp)
  102685:	05 ff 01 00 00       	add    $0x1ff,%eax
  10268a:	29 f8                	sub    %edi,%eax
            sectors_to_read = sectors_per_cluster;
        }

        vga_writestr("[FAT32] Reading ");
  10268c:	68 b2 44 10 00       	push   $0x1044b2
        if (sectors_to_read > sectors_per_cluster) {
  102691:	89 cf                	mov    %ecx,%edi
        uint32_t sectors_to_read = (bytes_to_read + 511) / 512;
  102693:	c1 e8 09             	shr    $0x9,%eax
        if (sectors_to_read > sectors_per_cluster) {
  102696:	39 c8                	cmp    %ecx,%eax
  102698:	0f 46 f8             	cmovbe %eax,%edi
        vga_writestr("[FAT32] Reading ");
  10269b:	e8 50 07 00 00       	call   102df0 <vga_writestr>
        uint32_t_to_str(sectors_to_read, size_str);
  1026a0:	56                   	push   %esi
  1026a1:	57                   	push   %edi
  1026a2:	e8 99 08 00 00       	call   102f40 <uint32_t_to_str>
        vga_writestr(size_str);
  1026a7:	56                   	push   %esi
  1026a8:	e8 43 07 00 00       	call   102df0 <vga_writestr>
        vga_writestr(" sectors\n");
  1026ad:	68 c3 44 10 00       	push   $0x1044c3
  1026b2:	e8 39 07 00 00       	call   102df0 <vga_writestr>

        // Read data
        if (!ata_read_sectors(data_sector, sectors_to_read, (uint8_t*)buffer + bytes_read)) {
  1026b7:	8b 85 cc fb ff ff    	mov    -0x434(%ebp),%eax
  1026bd:	03 45 0c             	add    0xc(%ebp),%eax
  1026c0:	50                   	push   %eax
  1026c1:	89 f8                	mov    %edi,%eax
  1026c3:	0f b6 c0             	movzbl %al,%eax
  1026c6:	50                   	push   %eax
  1026c7:	53                   	push   %ebx
  1026c8:	e8 f3 ea ff ff       	call   1011c0 <ata_read_sectors>
  1026cd:	83 c4 24             	add    $0x24,%esp
  1026d0:	8b 95 bc fb ff ff    	mov    -0x444(%ebp),%edx
  1026d6:	85 c0                	test   %eax,%eax
  1026d8:	0f 84 9b 00 00 00    	je     102779 <fat32_read_file+0x3c9>
            vga_writestr("[FAT32] Failed to read data sectors\n");
            return false;
        }

        bytes_read += sectors_to_read * 512;
  1026de:	89 f8                	mov    %edi,%eax
    uint32_t fat_sector = fat_begin_lba + ((cluster * 4) / 512);
  1026e0:	8d 3c 95 00 00 00 00 	lea    0x0(,%edx,4),%edi
        bytes_read += sectors_to_read * 512;
  1026e7:	c1 e0 09             	shl    $0x9,%eax
  1026ea:	01 85 cc fb ff ff    	add    %eax,-0x434(%ebp)
    uint32_t fat_sector = fat_begin_lba + ((cluster * 4) / 512);
  1026f0:	89 f8                	mov    %edi,%eax
    if (!ata_read_sectors(fat_sector, 1, buffer)) {
  1026f2:	ff b5 d0 fb ff ff    	push   -0x430(%ebp)
    uint32_t fat_sector = fat_begin_lba + ((cluster * 4) / 512);
  1026f8:	c1 e8 09             	shr    $0x9,%eax
    if (!ata_read_sectors(fat_sector, 1, buffer)) {
  1026fb:	6a 01                	push   $0x1
    uint32_t fat_sector = fat_begin_lba + ((cluster * 4) / 512);
  1026fd:	03 05 b8 7b 10 00    	add    0x107bb8,%eax
    if (!ata_read_sectors(fat_sector, 1, buffer)) {
  102703:	50                   	push   %eax
  102704:	e8 b7 ea ff ff       	call   1011c0 <ata_read_sectors>
  102709:	83 c4 0c             	add    $0xc,%esp
  10270c:	85 c0                	test   %eax,%eax
  10270e:	0f 84 6b 01 00 00    	je     10287f <fat32_read_file+0x4cf>
    return buffer[offset/4] & 0x0FFFFFFF;
  102714:	81 e7 fc 01 00 00    	and    $0x1fc,%edi
  10271a:	8b 94 2f f4 fb ff ff 	mov    -0x40c(%edi,%ebp,1),%edx
  102721:	81 e2 ff ff ff 0f    	and    $0xfffffff,%edx
    while (bytes_read < entry->file_size && current_data_cluster < 0x0FFFFFF8) {
  102727:	81 fa f7 ff ff 0f    	cmp    $0xffffff7,%edx
  10272d:	0f 96 c0             	setbe  %al
  102730:	8b 8d c8 fb ff ff    	mov    -0x438(%ebp),%ecx
  102736:	8b bd cc fb ff ff    	mov    -0x434(%ebp),%edi
  10273c:	3b 79 1c             	cmp    0x1c(%ecx),%edi
  10273f:	73 08                	jae    102749 <fat32_read_file+0x399>
  102741:	84 c0                	test   %al,%al
  102743:	0f 85 b4 fe ff ff    	jne    1025fd <fat32_read_file+0x24d>
        current_data_cluster = fat32_get_next_cluster(current_data_cluster);
    }

    vga_writestr("[FAT32] Successfully read ");
  102749:	68 cd 44 10 00       	push   $0x1044cd
  10274e:	e8 9d 06 00 00       	call   102df0 <vga_writestr>
    uint32_t_to_str(bytes_read, size_str);
  102753:	56                   	push   %esi
  102754:	ff b5 cc fb ff ff    	push   -0x434(%ebp)
  10275a:	e8 e1 07 00 00       	call   102f40 <uint32_t_to_str>
    vga_writestr(size_str);
  10275f:	56                   	push   %esi
  102760:	e8 8b 06 00 00       	call   102df0 <vga_writestr>
    vga_writestr(" bytes\n");
  102765:	68 e8 44 10 00       	push   $0x1044e8
  10276a:	e8 81 06 00 00       	call   102df0 <vga_writestr>

    return true;
  10276f:	83 c4 14             	add    $0x14,%esp
  102772:	b8 01 00 00 00       	mov    $0x1,%eax
  102777:	eb 0d                	jmp    102786 <fat32_read_file+0x3d6>
            vga_writestr("[FAT32] Failed to read data sectors\n");
  102779:	68 d4 49 10 00       	push   $0x1049d4
  10277e:	e8 6d 06 00 00       	call   102df0 <vga_writestr>
            return false;
  102783:	58                   	pop    %eax
        return false;
  102784:	31 c0                	xor    %eax,%eax
  102786:	8d 65 f4             	lea    -0xc(%ebp),%esp
  102789:	5b                   	pop    %ebx
  10278a:	5e                   	pop    %esi
  10278b:	5f                   	pop    %edi
  10278c:	5d                   	pop    %ebp
  10278d:	c3                   	ret
  10278e:	66 90                	xchg   %ax,%ax
            for (uint32_t j = 0; j < 16; j++) {
  102790:	83 c7 20             	add    $0x20,%edi
  102793:	8d 45 f4             	lea    -0xc(%ebp),%eax
  102796:	39 f8                	cmp    %edi,%eax
  102798:	0f 85 b2 fc ff ff    	jne    102450 <fat32_read_file+0xa0>
        for (uint32_t i = 0; i < sectors_per_cluster && !found; i++) {
  10279e:	8b b5 cc fb ff ff    	mov    -0x434(%ebp),%esi
  1027a4:	83 c6 01             	add    $0x1,%esi
  1027a7:	3b 35 b0 7b 10 00    	cmp    0x107bb0,%esi
  1027ad:	0f 82 6d fc ff ff    	jb     102420 <fat32_read_file+0x70>
  1027b3:	8b 95 c4 fb ff ff    	mov    -0x43c(%ebp),%edx
    uint32_t fat_sector = fat_begin_lba + ((cluster * 4) / 512);
  1027b9:	8d 34 95 00 00 00 00 	lea    0x0(,%edx,4),%esi
    if (!ata_read_sectors(fat_sector, 1, buffer)) {
  1027c0:	8d 8d f4 fb ff ff    	lea    -0x40c(%ebp),%ecx
    uint32_t fat_sector = fat_begin_lba + ((cluster * 4) / 512);
  1027c6:	89 f0                	mov    %esi,%eax
    if (!ata_read_sectors(fat_sector, 1, buffer)) {
  1027c8:	51                   	push   %ecx
    uint32_t fat_sector = fat_begin_lba + ((cluster * 4) / 512);
  1027c9:	c1 e8 09             	shr    $0x9,%eax
    if (!ata_read_sectors(fat_sector, 1, buffer)) {
  1027cc:	6a 01                	push   $0x1
    uint32_t fat_sector = fat_begin_lba + ((cluster * 4) / 512);
  1027ce:	03 05 b8 7b 10 00    	add    0x107bb8,%eax
    if (!ata_read_sectors(fat_sector, 1, buffer)) {
  1027d4:	50                   	push   %eax
  1027d5:	e8 e6 e9 ff ff       	call   1011c0 <ata_read_sectors>
  1027da:	83 c4 0c             	add    $0xc,%esp
        return 0x0FFFFFF7;
  1027dd:	ba f7 ff ff 0f       	mov    $0xffffff7,%edx
    if (!ata_read_sectors(fat_sector, 1, buffer)) {
  1027e2:	85 c0                	test   %eax,%eax
  1027e4:	0f 84 07 fc ff ff    	je     1023f1 <fat32_read_file+0x41>
    return buffer[offset/4] & 0x0FFFFFFF;
  1027ea:	81 e6 fc 01 00 00    	and    $0x1fc,%esi
  1027f0:	8b 84 2e f4 fb ff ff 	mov    -0x40c(%esi,%ebp,1),%eax
  1027f7:	25 ff ff ff 0f       	and    $0xfffffff,%eax
  1027fc:	89 c2                	mov    %eax,%edx
    while (current_cluster < 0x0FFFFFF8 && !found) {
  1027fe:	3d f7 ff ff 0f       	cmp    $0xffffff7,%eax
  102803:	0f 86 e8 fb ff ff    	jbe    1023f1 <fat32_read_file+0x41>
  102809:	e9 76 ff ff ff       	jmp    102784 <fat32_read_file+0x3d4>
  10280e:	66 90                	xchg   %ax,%ax
    while (dst < 8) {
  102810:	8d 8d f4 fb ff ff    	lea    -0x40c(%ebp),%ecx
  102816:	8d b5 fc fb ff ff    	lea    -0x404(%ebp),%esi
  10281c:	8d 1c 11             	lea    (%ecx,%edx,1),%ebx
  10281f:	f6 c2 01             	test   $0x1,%dl
  102822:	74 1c                	je     102840 <fat32_read_file+0x490>
        normalized[dst++] = ' ';
  102824:	c6 03 20             	movb   $0x20,(%ebx)
    while (dst < 8) {
  102827:	83 c3 01             	add    $0x1,%ebx
  10282a:	39 f3                	cmp    %esi,%ebx
  10282c:	0f 84 77 fc ff ff    	je     1024a9 <fat32_read_file+0xf9>
  102832:	2e 8d b4 26 00 00 00 	lea    %cs:0x0(%esi,%eiz,1),%esi
  102839:	00 
  10283a:	8d b6 00 00 00 00    	lea    0x0(%esi),%esi
        normalized[dst++] = ' ';
  102840:	c6 03 20             	movb   $0x20,(%ebx)
    while (dst < 8) {
  102843:	83 c3 02             	add    $0x2,%ebx
        normalized[dst++] = ' ';
  102846:	c6 43 ff 20          	movb   $0x20,-0x1(%ebx)
    while (dst < 8) {
  10284a:	39 f3                	cmp    %esi,%ebx
  10284c:	75 f2                	jne    102840 <fat32_read_file+0x490>
  10284e:	e9 56 fc ff ff       	jmp    1024a9 <fat32_read_file+0xf9>
  102853:	2e 8d 74 26 00       	lea    %cs:0x0(%esi,%eiz,1),%esi
  102858:	89 f9                	mov    %edi,%ecx
  10285a:	8b bd d0 fb ff ff    	mov    -0x430(%ebp),%edi
    while (dst < 11) {
  102860:	8d 95 ff fb ff ff    	lea    -0x401(%ebp),%edx
  102866:	01 c8                	add    %ecx,%eax
  102868:	2e 8d b4 26 00 00 00 	lea    %cs:0x0(%esi,%eiz,1),%esi
  10286f:	00 
        normalized[dst++] = ' ';
  102870:	c6 00 20             	movb   $0x20,(%eax)
    while (dst < 11) {
  102873:	83 c0 01             	add    $0x1,%eax
  102876:	39 c2                	cmp    %eax,%edx
  102878:	75 f6                	jne    102870 <fat32_read_file+0x4c0>
  10287a:	e9 74 fc ff ff       	jmp    1024f3 <fat32_read_file+0x143>
  10287f:	0f b6 85 c4 fb ff ff 	movzbl -0x43c(%ebp),%eax
        return 0x0FFFFFF7;
  102886:	ba f7 ff ff 0f       	mov    $0xffffff7,%edx
  10288b:	e9 a0 fe ff ff       	jmp    102730 <fat32_read_file+0x380>
        vga_writestr("[FAT32] Buffer too small\n");
  102890:	68 7e 44 10 00       	push   $0x10447e
  102895:	e8 56 05 00 00       	call   102df0 <vga_writestr>
        *size = entry->file_size;
  10289a:	8b 47 1c             	mov    0x1c(%edi),%eax
  10289d:	89 03                	mov    %eax,(%ebx)
        return false;
  10289f:	5b                   	pop    %ebx
  1028a0:	e9 df fe ff ff       	jmp    102784 <fat32_read_file+0x3d4>
  1028a5:	66 90                	xchg   %ax,%ax
  1028a7:	66 90                	xchg   %ax,%ax
  1028a9:	66 90                	xchg   %ax,%ax
  1028ab:	66 90                	xchg   %ax,%ax
  1028ad:	66 90                	xchg   %ax,%ax
  1028af:	90                   	nop

001028b0 <keyboard_init>:
  1028b0:	e4 64                	in     $0x64,%al
    '*', 0, ' '
};

void keyboard_init(void) {
    // Wait for keyboard controller to be ready
    while (inb(KEYBOARD_STATUS_PORT) & KEYBOARD_INPUT_FULL);
  1028b2:	a8 02                	test   $0x2,%al
  1028b4:	75 fa                	jne    1028b0 <keyboard_init>
    
    // Reset shift and caps lock state
    shift_pressed = false;
  1028b6:	c7 05 24 7c 10 00 00 	movl   $0x0,0x107c24
  1028bd:	00 00 00 
    caps_lock = false;
  1028c0:	c7 05 20 7c 10 00 00 	movl   $0x0,0x107c20
  1028c7:	00 00 00 
}
  1028ca:	c3                   	ret
  1028cb:	2e 8d 74 26 00       	lea    %cs:0x0(%esi,%eiz,1),%esi

001028d0 <keyboard_read>:
    }

    return c;
}

char keyboard_read(void) {
  1028d0:	55                   	push   %ebp
  1028d1:	89 e5                	mov    %esp,%ebp
  1028d3:	57                   	push   %edi
  1028d4:	56                   	push   %esi
  1028d5:	31 f6                	xor    %esi,%esi
  1028d7:	53                   	push   %ebx
  1028d8:	83 ec 04             	sub    $0x4,%esp
  1028db:	c6 45 f3 00          	movb   $0x0,-0xd(%ebp)
  1028df:	8b 15 20 7c 10 00    	mov    0x107c20,%edx
  1028e5:	8b 0d 24 7c 10 00    	mov    0x107c24,%ecx
  1028eb:	2e 8d 74 26 00       	lea    %cs:0x0(%esi,%eiz,1),%esi
  1028f0:	e4 64                	in     $0x64,%al
    char c;
    do {
        // Wait for keyboard data
        while (!(inb(KEYBOARD_STATUS_PORT) & KEYBOARD_OUTPUT_FULL));
  1028f2:	a8 01                	test   $0x1,%al
  1028f4:	74 fa                	je     1028f0 <keyboard_read+0x20>
  1028f6:	e4 60                	in     $0x60,%al
    if (scancode & 0x80) {
  1028f8:	84 c0                	test   %al,%al
  1028fa:	78 74                	js     102970 <keyboard_read+0xa0>
    switch (scancode) {
  1028fc:	3c 36                	cmp    $0x36,%al
  1028fe:	0f 84 8c 00 00 00    	je     102990 <keyboard_read+0xc0>
  102904:	3c 3a                	cmp    $0x3a,%al
  102906:	0f 84 94 00 00 00    	je     1029a0 <keyboard_read+0xd0>
  10290c:	3c 2a                	cmp    $0x2a,%al
  10290e:	0f 84 7c 00 00 00    	je     102990 <keyboard_read+0xc0>
    if (scancode >= sizeof(scancode_to_ascii)) {
  102914:	3c 39                	cmp    $0x39,%al
  102916:	77 d8                	ja     1028f0 <keyboard_read+0x20>
        c = scancode_to_ascii_shift[scancode];
  102918:	0f b6 c0             	movzbl %al,%eax
    if (shift_pressed) {
  10291b:	85 c9                	test   %ecx,%ecx
  10291d:	0f 84 8f 00 00 00    	je     1029b2 <keyboard_read+0xe2>
        c = scancode_to_ascii_shift[scancode];
  102923:	0f b6 80 40 4a 10 00 	movzbl 0x104a40(%eax),%eax
    if (caps_lock && c >= 'a' && c <= 'z') {
  10292a:	85 d2                	test   %edx,%edx
  10292c:	74 1c                	je     10294a <keyboard_read+0x7a>
  10292e:	8d 78 9f             	lea    -0x61(%eax),%edi
  102931:	89 fb                	mov    %edi,%ebx
  102933:	80 fb 19             	cmp    $0x19,%bl
  102936:	0f 86 82 00 00 00    	jbe    1029be <keyboard_read+0xee>
    } else if (caps_lock && c >= 'A' && c <= 'Z') {
  10293c:	8d 78 bf             	lea    -0x41(%eax),%edi
  10293f:	89 fb                	mov    %edi,%ebx
  102941:	80 fb 19             	cmp    $0x19,%bl
  102944:	0f 86 97 00 00 00    	jbe    1029e1 <keyboard_read+0x111>
        
        // Read scancode and convert to ASCII
        uint8_t scancode = inb(KEYBOARD_DATA_PORT);
        c = handle_scancode(scancode);
    } while (c == 0);  // Keep reading until we get a printable character
  10294a:	84 c0                	test   %al,%al
  10294c:	74 a2                	je     1028f0 <keyboard_read+0x20>
  10294e:	89 f3                	mov    %esi,%ebx
  102950:	84 db                	test   %bl,%bl
  102952:	74 06                	je     10295a <keyboard_read+0x8a>
  102954:	89 15 20 7c 10 00    	mov    %edx,0x107c20
  10295a:	80 7d f3 00          	cmpb   $0x0,-0xd(%ebp)
  10295e:	74 06                	je     102966 <keyboard_read+0x96>
  102960:	89 0d 24 7c 10 00    	mov    %ecx,0x107c24

    return c;
}
  102966:	83 c4 04             	add    $0x4,%esp
  102969:	5b                   	pop    %ebx
  10296a:	5e                   	pop    %esi
  10296b:	5f                   	pop    %edi
  10296c:	5d                   	pop    %ebp
  10296d:	c3                   	ret
  10296e:	66 90                	xchg   %ax,%ax
        scancode &= 0x7F;  // Clear the top bit
  102970:	83 e0 7f             	and    $0x7f,%eax
        if (scancode == KEY_LSHIFT || scancode == KEY_RSHIFT) {
  102973:	3c 2a                	cmp    $0x2a,%al
  102975:	0f 94 c3             	sete   %bl
  102978:	3c 36                	cmp    $0x36,%al
  10297a:	0f 94 c0             	sete   %al
  10297d:	08 d8                	or     %bl,%al
  10297f:	0f 84 6b ff ff ff    	je     1028f0 <keyboard_read+0x20>
  102985:	88 45 f3             	mov    %al,-0xd(%ebp)
            shift_pressed = false;
  102988:	31 c9                	xor    %ecx,%ecx
  10298a:	e9 61 ff ff ff       	jmp    1028f0 <keyboard_read+0x20>
  10298f:	90                   	nop
    switch (scancode) {
  102990:	c6 45 f3 01          	movb   $0x1,-0xd(%ebp)
  102994:	b9 01 00 00 00       	mov    $0x1,%ecx
  102999:	e9 52 ff ff ff       	jmp    1028f0 <keyboard_read+0x20>
  10299e:	66 90                	xchg   %ax,%ax
            caps_lock = !caps_lock;
  1029a0:	85 d2                	test   %edx,%edx
  1029a2:	be 01 00 00 00       	mov    $0x1,%esi
  1029a7:	0f 94 c2             	sete   %dl
  1029aa:	0f b6 d2             	movzbl %dl,%edx
    } while (c == 0);  // Keep reading until we get a printable character
  1029ad:	e9 3e ff ff ff       	jmp    1028f0 <keyboard_read+0x20>
        c = scancode_to_ascii[scancode];
  1029b2:	0f b6 80 80 4a 10 00 	movzbl 0x104a80(%eax),%eax
  1029b9:	e9 6c ff ff ff       	jmp    10292a <keyboard_read+0x5a>
  1029be:	89 f3                	mov    %esi,%ebx
  1029c0:	84 db                	test   %bl,%bl
  1029c2:	74 06                	je     1029ca <keyboard_read+0xfa>
  1029c4:	89 15 20 7c 10 00    	mov    %edx,0x107c20
  1029ca:	80 7d f3 00          	cmpb   $0x0,-0xd(%ebp)
  1029ce:	74 06                	je     1029d6 <keyboard_read+0x106>
  1029d0:	89 0d 24 7c 10 00    	mov    %ecx,0x107c24
}
  1029d6:	83 c4 04             	add    $0x4,%esp
        return c - 'a' + 'A';
  1029d9:	83 e8 20             	sub    $0x20,%eax
}
  1029dc:	5b                   	pop    %ebx
  1029dd:	5e                   	pop    %esi
  1029de:	5f                   	pop    %edi
  1029df:	5d                   	pop    %ebp
  1029e0:	c3                   	ret
  1029e1:	89 f3                	mov    %esi,%ebx
  1029e3:	84 db                	test   %bl,%bl
  1029e5:	74 06                	je     1029ed <keyboard_read+0x11d>
  1029e7:	89 15 20 7c 10 00    	mov    %edx,0x107c20
  1029ed:	80 7d f3 00          	cmpb   $0x0,-0xd(%ebp)
  1029f1:	74 06                	je     1029f9 <keyboard_read+0x129>
  1029f3:	89 0d 24 7c 10 00    	mov    %ecx,0x107c24
  1029f9:	83 c4 04             	add    $0x4,%esp
        return c - 'A' + 'a';
  1029fc:	83 c0 20             	add    $0x20,%eax
}
  1029ff:	5b                   	pop    %ebx
  102a00:	5e                   	pop    %esi
  102a01:	5f                   	pop    %edi
  102a02:	5d                   	pop    %ebp
  102a03:	c3                   	ret
  102a04:	2e 8d b4 26 00 00 00 	lea    %cs:0x0(%esi,%eiz,1),%esi
  102a0b:	00 
  102a0c:	8d 74 26 00          	lea    0x0(%esi,%eiz,1),%esi

00102a10 <keyboard_is_shift_pressed>:

bool keyboard_is_shift_pressed(void) {
    return shift_pressed;
}
  102a10:	a1 24 7c 10 00       	mov    0x107c24,%eax
  102a15:	c3                   	ret
  102a16:	2e 8d b4 26 00 00 00 	lea    %cs:0x0(%esi,%eiz,1),%esi
  102a1d:	00 
  102a1e:	66 90                	xchg   %ax,%ax

00102a20 <keyboard_is_caps_on>:

bool keyboard_is_caps_on(void) {
    return caps_lock;
  102a20:	a1 20 7c 10 00       	mov    0x107c20,%eax
  102a25:	c3                   	ret
  102a26:	66 90                	xchg   %ax,%ax
  102a28:	66 90                	xchg   %ax,%ax
  102a2a:	66 90                	xchg   %ax,%ax
  102a2c:	66 90                	xchg   %ax,%ax
  102a2e:	66 90                	xchg   %ax,%ax

00102a30 <load_program>:
#include "../include/memory.h"
#include "../include/string.h"
#include "../include/vga.h"
#include "../include/stdint.h"

bool load_program(const char* filename, program_info_t* info) {
  102a30:	55                   	push   %ebp
  102a31:	89 e5                	mov    %esp,%ebp
  102a33:	53                   	push   %ebx
  102a34:	83 ec 04             	sub    $0x4,%esp
  102a37:	8b 5d 0c             	mov    0xc(%ebp),%ebx
    if (!info) return false;
  102a3a:	85 db                	test   %ebx,%ebx
  102a3c:	74 6d                	je     102aab <load_program+0x7b>
    
    // Initialize program info - keep program and stack well separated
    info->loaded = false;
  102a3e:	c7 43 08 00 00 00 00 	movl   $0x0,0x8(%ebx)
    info->entry_point = PROGRAM_LOAD_ADDR + 0x1000;  // Add 4KB offset for safety
  102a45:	c7 03 00 10 10 00    	movl   $0x101000,(%ebx)
    info->stack_pointer = PROGRAM_LOAD_ADDR + STACK_SIZE - 0x1000;  // Leave 4KB safety margin
  102a4b:	c7 43 04 00 70 10 00 	movl   $0x107000,0x4(%ebx)

    vga_writestr("Loading program...\n");
  102a52:	68 25 45 10 00       	push   $0x104525
  102a57:	e8 94 03 00 00       	call   102df0 <vga_writestr>

    // Use a much smaller buffer initially for testing
    uint32_t buffer_size = 4096;  // Start with just 4KB
    
    // Clear only the program area
    memset((void*)info->entry_point, 0, buffer_size);
  102a5c:	68 00 10 00 00       	push   $0x1000
  102a61:	6a 00                	push   $0x0
  102a63:	ff 33                	push   (%ebx)
  102a65:	e8 c6 05 00 00       	call   103030 <memset>

    // Read file with limited size
    uint32_t size = buffer_size;
    if (!fat32_read_file(filename, (void*)info->entry_point, &size)) {
  102a6a:	8d 45 f8             	lea    -0x8(%ebp),%eax
    uint32_t size = buffer_size;
  102a6d:	c7 45 f8 00 10 00 00 	movl   $0x1000,-0x8(%ebp)
    if (!fat32_read_file(filename, (void*)info->entry_point, &size)) {
  102a74:	50                   	push   %eax
  102a75:	ff 33                	push   (%ebx)
  102a77:	ff 75 08             	push   0x8(%ebp)
  102a7a:	e8 31 f9 ff ff       	call   1023b0 <fat32_read_file>
  102a7f:	83 c4 1c             	add    $0x1c,%esp
  102a82:	85 c0                	test   %eax,%eax
  102a84:	74 1a                	je     102aa0 <load_program+0x70>
        vga_writestr("Error: Could not read program file\n");
        return false;
    }

    info->loaded = true;
  102a86:	c7 43 08 01 00 00 00 	movl   $0x1,0x8(%ebx)
    return true;
  102a8d:	b8 01 00 00 00       	mov    $0x1,%eax
}
  102a92:	8b 5d fc             	mov    -0x4(%ebp),%ebx
  102a95:	c9                   	leave
  102a96:	c3                   	ret
  102a97:	2e 8d b4 26 00 00 00 	lea    %cs:0x0(%esi,%eiz,1),%esi
  102a9e:	00 
  102a9f:	90                   	nop
        vga_writestr("Error: Could not read program file\n");
  102aa0:	68 fc 49 10 00       	push   $0x1049fc
  102aa5:	e8 46 03 00 00       	call   102df0 <vga_writestr>
        return false;
  102aaa:	58                   	pop    %eax
}
  102aab:	8b 5d fc             	mov    -0x4(%ebp),%ebx
    if (!info) return false;
  102aae:	31 c0                	xor    %eax,%eax
}
  102ab0:	c9                   	leave
  102ab1:	c3                   	ret
  102ab2:	2e 8d b4 26 00 00 00 	lea    %cs:0x0(%esi,%eiz,1),%esi
  102ab9:	00 
  102aba:	8d b6 00 00 00 00    	lea    0x0(%esi),%esi

00102ac0 <jump_to_program>:

void jump_to_program(uint32_t entry_point, uint32_t stack_pointer) {
  102ac0:	55                   	push   %ebp
  102ac1:	89 e5                	mov    %esp,%ebp
  102ac3:	57                   	push   %edi
    typedef void (*program_entry)(void);
    program_entry program = (program_entry)entry_point;

    vga_writestr("Jumping to program at 0x");
  102ac4:	bf 1c 00 00 00       	mov    $0x1c,%edi
void jump_to_program(uint32_t entry_point, uint32_t stack_pointer) {
  102ac9:	56                   	push   %esi
  102aca:	8d 75 f2             	lea    -0xe(%ebp),%esi
  102acd:	53                   	push   %ebx
  102ace:	83 ec 08             	sub    $0x8,%esp
  102ad1:	8b 45 0c             	mov    0xc(%ebp),%eax
  102ad4:	8b 5d 08             	mov    0x8(%ebp),%ebx
  102ad7:	89 45 ec             	mov    %eax,-0x14(%ebp)
    vga_writestr("Jumping to program at 0x");
  102ada:	68 39 45 10 00       	push   $0x104539
  102adf:	e8 0c 03 00 00       	call   102df0 <vga_writestr>
  102ae4:	59                   	pop    %ecx
  102ae5:	2e 8d b4 26 00 00 00 	lea    %cs:0x0(%esi,%eiz,1),%esi
  102aec:	00 
  102aed:	8d 76 00             	lea    0x0(%esi),%esi
    for (int i = 7; i >= 0; i--) {
        char hex = "0123456789ABCDEF"[(entry_point >> (i * 4)) & 0xF];
  102af0:	89 f9                	mov    %edi,%ecx
  102af2:	89 d8                	mov    %ebx,%eax
        char str[2] = {hex, 0};
  102af4:	c6 45 f3 00          	movb   $0x0,-0xd(%ebp)
    for (int i = 7; i >= 0; i--) {
  102af8:	83 ef 04             	sub    $0x4,%edi
        char hex = "0123456789ABCDEF"[(entry_point >> (i * 4)) & 0xF];
  102afb:	d3 e8                	shr    %cl,%eax
  102afd:	83 e0 0f             	and    $0xf,%eax
        char str[2] = {hex, 0};
  102b00:	0f b6 80 43 41 10 00 	movzbl 0x104143(%eax),%eax
  102b07:	88 45 f2             	mov    %al,-0xe(%ebp)
        vga_writestr(str);
  102b0a:	56                   	push   %esi
  102b0b:	e8 e0 02 00 00       	call   102df0 <vga_writestr>
    for (int i = 7; i >= 0; i--) {
  102b10:	5a                   	pop    %edx
  102b11:	83 ff fc             	cmp    $0xfffffffc,%edi
  102b14:	75 da                	jne    102af0 <jump_to_program+0x30>
    }
    vga_writestr("\n");
  102b16:	68 0a 44 10 00       	push   $0x10440a
  102b1b:	e8 d0 02 00 00       	call   102df0 <vga_writestr>

    // Just switch stack and jump
    asm volatile(
  102b20:	8b 45 ec             	mov    -0x14(%ebp),%eax
  102b23:	89 c4                	mov    %eax,%esp
  102b25:	ff d3                	call   *%ebx
        : "r"(stack_pointer), "r"(entry_point)
        : "memory"
    );

    // We shouldn't get here normally - program should exit via interrupt
    vga_writestr("Program returned via interrupt\n");
  102b27:	58                   	pop    %eax
  102b28:	c7 45 08 20 4a 10 00 	movl   $0x104a20,0x8(%ebp)
  102b2f:	8d 65 f4             	lea    -0xc(%ebp),%esp
  102b32:	5b                   	pop    %ebx
  102b33:	5e                   	pop    %esi
  102b34:	5f                   	pop    %edi
  102b35:	5d                   	pop    %ebp
    vga_writestr("Program returned via interrupt\n");
  102b36:	e9 b5 02 00 00       	jmp    102df0 <vga_writestr>
  102b3b:	66 90                	xchg   %ax,%ax
  102b3d:	66 90                	xchg   %ax,%ax
  102b3f:	90                   	nop

00102b40 <init_memory>:
// Simple memory allocator
#define HEAP_SIZE 1024*1024  // 1MB heap
static uint8_t heap[HEAP_SIZE];
static size_t heap_ptr = 0;

void init_memory(void) {
  102b40:	55                   	push   %ebp
    heap_ptr = 0;
  102b41:	c7 05 40 7c 10 00 00 	movl   $0x0,0x107c40
  102b48:	00 00 00 
void init_memory(void) {
  102b4b:	89 e5                	mov    %esp,%ebp
    memset(heap, 0, HEAP_SIZE);  // Clear heap on initialization
  102b4d:	68 00 00 10 00       	push   $0x100000
  102b52:	6a 00                	push   $0x0
  102b54:	68 60 7c 10 00       	push   $0x107c60
  102b59:	e8 d2 04 00 00       	call   103030 <memset>
}
  102b5e:	83 c4 0c             	add    $0xc,%esp
  102b61:	c9                   	leave
  102b62:	c3                   	ret
  102b63:	2e 8d b4 26 00 00 00 	lea    %cs:0x0(%esi,%eiz,1),%esi
  102b6a:	00 
  102b6b:	2e 8d 74 26 00       	lea    %cs:0x0(%esi,%eiz,1),%esi

00102b70 <kmalloc>:

void* kmalloc(size_t size) {
  102b70:	55                   	push   %ebp
    if (heap_ptr + size > HEAP_SIZE) {
  102b71:	a1 40 7c 10 00       	mov    0x107c40,%eax
void* kmalloc(size_t size) {
  102b76:	89 e5                	mov    %esp,%ebp
    if (heap_ptr + size > HEAP_SIZE) {
  102b78:	8b 55 08             	mov    0x8(%ebp),%edx
  102b7b:	01 c2                	add    %eax,%edx
  102b7d:	81 fa 00 00 10 00    	cmp    $0x100000,%edx
  102b83:	77 1b                	ja     102ba0 <kmalloc+0x30>
    }
    
    void* ptr = &heap[heap_ptr];
    heap_ptr += size;
    // Align to 4 bytes
    heap_ptr = (heap_ptr + 3) & ~3;
  102b85:	83 c2 03             	add    $0x3,%edx
    void* ptr = &heap[heap_ptr];
  102b88:	05 60 7c 10 00       	add    $0x107c60,%eax
    return ptr;
}
  102b8d:	5d                   	pop    %ebp
    heap_ptr = (heap_ptr + 3) & ~3;
  102b8e:	83 e2 fc             	and    $0xfffffffc,%edx
  102b91:	89 15 40 7c 10 00    	mov    %edx,0x107c40
}
  102b97:	c3                   	ret
  102b98:	2e 8d b4 26 00 00 00 	lea    %cs:0x0(%esi,%eiz,1),%esi
  102b9f:	00 
        return NULL;  // Out of memory
  102ba0:	31 c0                	xor    %eax,%eax
}
  102ba2:	5d                   	pop    %ebp
  102ba3:	c3                   	ret
  102ba4:	2e 8d b4 26 00 00 00 	lea    %cs:0x0(%esi,%eiz,1),%esi
  102bab:	00 
  102bac:	8d 74 26 00          	lea    0x0(%esi,%eiz,1),%esi

00102bb0 <kfree>:

void kfree(void* ptr) {
    // This is a very simple allocator that doesn't actually free memory
    // In a real kernel, you'd want to implement proper memory management
    (void)ptr;
  102bb0:	c3                   	ret
  102bb1:	66 90                	xchg   %ax,%ax
  102bb3:	66 90                	xchg   %ax,%ax
  102bb5:	66 90                	xchg   %ax,%ax
  102bb7:	66 90                	xchg   %ax,%ax
  102bb9:	66 90                	xchg   %ax,%ax
  102bbb:	66 90                	xchg   %ax,%ax
  102bbd:	66 90                	xchg   %ax,%ax
  102bbf:	90                   	nop

00102bc0 <print>:
//
#include "../include/stdterm.h"
#include "../include/vga.h"

void print(const char* str) {
  vga_writestr(str);
  102bc0:	e9 2b 02 00 00       	jmp    102df0 <vga_writestr>
  102bc5:	2e 8d b4 26 00 00 00 	lea    %cs:0x0(%esi,%eiz,1),%esi
  102bcc:	00 
  102bcd:	8d 76 00             	lea    0x0(%esi),%esi

00102bd0 <println>:
}

void println(const char* str) {
  102bd0:	55                   	push   %ebp
  102bd1:	89 e5                	mov    %esp,%ebp
  vga_writestr(str);
  102bd3:	ff 75 08             	push   0x8(%ebp)
  102bd6:	e8 15 02 00 00       	call   102df0 <vga_writestr>
  vga_putchar('\n');
  102bdb:	58                   	pop    %eax
  102bdc:	c7 45 08 0a 00 00 00 	movl   $0xa,0x8(%ebp)
}
  102be3:	c9                   	leave
  vga_putchar('\n');
  102be4:	e9 a7 00 00 00       	jmp    102c90 <vga_putchar>
  102be9:	8d b4 26 00 00 00 00 	lea    0x0(%esi,%eiz,1),%esi

00102bf0 <printChar>:

void printChar(char c) {
  102bf0:	55                   	push   %ebp
  102bf1:	89 e5                	mov    %esp,%ebp
  vga_putchar(c);
  102bf3:	0f be 45 08          	movsbl 0x8(%ebp),%eax
  102bf7:	89 45 08             	mov    %eax,0x8(%ebp)
}
  102bfa:	5d                   	pop    %ebp
  vga_putchar(c);
  102bfb:	e9 90 00 00 00       	jmp    102c90 <vga_putchar>

00102c00 <clearScreen>:

void clearScreen() {
  vga_clear();
  102c00:	e9 2b 02 00 00       	jmp    102e30 <vga_clear>
  102c05:	66 90                	xchg   %ax,%ax
  102c07:	66 90                	xchg   %ax,%ax
  102c09:	66 90                	xchg   %ax,%ax
  102c0b:	66 90                	xchg   %ax,%ax
  102c0d:	66 90                	xchg   %ax,%ax
  102c0f:	66 90                	xchg   %ax,%ax
  102c11:	66 90                	xchg   %ax,%ax
  102c13:	66 90                	xchg   %ax,%ax
  102c15:	66 90                	xchg   %ax,%ax
  102c17:	66 90                	xchg   %ax,%ax
  102c19:	66 90                	xchg   %ax,%ax
  102c1b:	66 90                	xchg   %ax,%ax
  102c1d:	66 90                	xchg   %ax,%ax
  102c1f:	90                   	nop

00102c20 <vga_init>:
    return c16 | (color16 << 8);
}

void vga_init(void) {
    // Force black background (0), white foreground (15)
    vga_color = VGA_COLOR(VGA_WHITE, VGA_BLACK);  // 00001111 in binary
  102c20:	c6 05 62 7c 20 00 0f 	movb   $0xf,0x207c62
    cursor_pos = 0;
  102c27:	31 c0                	xor    %eax,%eax
  102c29:	66 a3 60 7c 20 00    	mov    %ax,0x207c60
  102c2f:	b8 00 80 0b 00       	mov    $0xb8000,%eax
  102c34:	2e 8d b4 26 00 00 00 	lea    %cs:0x0(%esi,%eiz,1),%esi
  102c3b:	00 
  102c3c:	8d 74 26 00          	lea    0x0(%esi,%eiz,1),%esi
    
    // Fill entire screen with spaces using our color
    for (int i = 0; i < VGA_WIDTH * VGA_HEIGHT; i++) {
        vga_buffer[i] = vga_entry(' ', vga_color);
  102c40:	ba 20 0f 00 00       	mov    $0xf20,%edx
  102c45:	b9 20 0f 00 00       	mov    $0xf20,%ecx
    for (int i = 0; i < VGA_WIDTH * VGA_HEIGHT; i++) {
  102c4a:	83 c0 04             	add    $0x4,%eax
        vga_buffer[i] = vga_entry(' ', vga_color);
  102c4d:	66 89 50 fc          	mov    %dx,-0x4(%eax)
  102c51:	66 89 48 fe          	mov    %cx,-0x2(%eax)
    for (int i = 0; i < VGA_WIDTH * VGA_HEIGHT; i++) {
  102c55:	3d a0 8f 0b 00       	cmp    $0xb8fa0,%eax
  102c5a:	75 e4                	jne    102c40 <vga_init+0x20>
    asm volatile("outb %0, %1" : : "a"(value), "Nd"(port));
  102c5c:	b8 0f 00 00 00       	mov    $0xf,%eax
  102c61:	ba d4 03 00 00       	mov    $0x3d4,%edx
  102c66:	ee                   	out    %al,(%dx)
  102c67:	31 c9                	xor    %ecx,%ecx
  102c69:	ba d5 03 00 00       	mov    $0x3d5,%edx
  102c6e:	89 c8                	mov    %ecx,%eax
  102c70:	ee                   	out    %al,(%dx)
  102c71:	b8 0e 00 00 00       	mov    $0xe,%eax
  102c76:	ba d4 03 00 00       	mov    $0x3d4,%edx
  102c7b:	ee                   	out    %al,(%dx)
  102c7c:	ba d5 03 00 00       	mov    $0x3d5,%edx
  102c81:	89 c8                	mov    %ecx,%eax
  102c83:	ee                   	out    %al,(%dx)
    }
    
    // Reset cursor
    vga_set_cursor_pos(0);
}
  102c84:	c3                   	ret
  102c85:	2e 8d b4 26 00 00 00 	lea    %cs:0x0(%esi,%eiz,1),%esi
  102c8c:	00 
  102c8d:	8d 76 00             	lea    0x0(%esi),%esi

00102c90 <vga_putchar>:

void vga_putchar(char c) {
  102c90:	55                   	push   %ebp
    if (c == '\n') {
        cursor_pos = (cursor_pos / VGA_WIDTH + 1) * VGA_WIDTH;
  102c91:	0f b7 05 60 7c 20 00 	movzwl 0x207c60,%eax
void vga_putchar(char c) {
  102c98:	89 e5                	mov    %esp,%ebp
  102c9a:	56                   	push   %esi
  102c9b:	8b 4d 08             	mov    0x8(%ebp),%ecx
  102c9e:	53                   	push   %ebx
    if (c == '\n') {
  102c9f:	80 f9 0a             	cmp    $0xa,%cl
  102ca2:	0f 84 23 01 00 00    	je     102dcb <vga_putchar+0x13b>
    } 
    else if (c == '\b') {
  102ca8:	80 f9 08             	cmp    $0x8,%cl
  102cab:	0f 84 de 00 00 00    	je     102d8f <vga_putchar+0xff>
    return c16 | (color16 << 8);
  102cb1:	0f b6 15 62 7c 20 00 	movzbl 0x207c62,%edx
  102cb8:	66 0f be c9          	movsbw %cl,%cx
            cursor_pos--;
            vga_buffer[cursor_pos] = vga_entry(' ', vga_color);
        }
    } 
    else {
        vga_buffer[cursor_pos] = vga_entry(c, vga_color);
  102cbc:	0f b7 d8             	movzwl %ax,%ebx
        cursor_pos++;
  102cbf:	83 c0 01             	add    $0x1,%eax
  102cc2:	66 a3 60 7c 20 00    	mov    %ax,0x207c60
    return c16 | (color16 << 8);
  102cc8:	c1 e2 08             	shl    $0x8,%edx
  102ccb:	09 ca                	or     %ecx,%edx
  102ccd:	66 89 94 1b 00 80 0b 	mov    %dx,0xb8000(%ebx,%ebx,1)
  102cd4:	00 
    }

    if (cursor_pos >= VGA_WIDTH * VGA_HEIGHT) {
